
default.elf:     file format elf32-avr

Sections:
Idx Name          Size      VMA       LMA       File off  Algn  Flags
  0 .data         00000008  00800100  00000b88  00000c3c  2**0  CONTENTS, ALLOC, LOAD, DATA
  1 .text         00000b88  00000000  00000000  000000b4  2**1  CONTENTS, ALLOC, LOAD, READONLY, CODE
  2 .bss          0000003c  00800108  00800108  00000c44  2**0  ALLOC
  3 .fuse         00000003  00820000  00820000  00000c44  2**0  CONTENTS, ALLOC, LOAD, DATA
  4 .comment      00000030  00000000  00000000  00000c47  2**0  CONTENTS, READONLY
  5 .note.gnu.avr.deviceinfo 00000040  00000000  00000000  00000c78  2**2  CONTENTS, READONLY
  6 .debug_aranges 00000298  00000000  00000000  00000cb8  2**0  CONTENTS, READONLY, DEBUGGING
  7 .debug_info   00002730  00000000  00000000  00000f50  2**0  CONTENTS, READONLY, DEBUGGING
  8 .debug_abbrev 00001973  00000000  00000000  00003680  2**0  CONTENTS, READONLY, DEBUGGING
  9 .debug_line   0000162b  00000000  00000000  00004ff3  2**0  CONTENTS, READONLY, DEBUGGING
 10 .debug_frame  0000058c  00000000  00000000  00006620  2**2  CONTENTS, READONLY, DEBUGGING
 11 .debug_str    00000e4b  00000000  00000000  00006bac  2**0  CONTENTS, READONLY, DEBUGGING
 12 .debug_loc    0000097a  00000000  00000000  000079f7  2**0  CONTENTS, READONLY, DEBUGGING
 13 .debug_ranges 00000228  00000000  00000000  00008371  2**0  CONTENTS, READONLY, DEBUGGING

Disassembly of section .text:

00000000 <__vectors>:
__vectors():
../../../../crt1/gcrt1.S:61
   0:	0c 94 3e 00 	jmp	0x7c	; 0x7c <__ctors_end>
../../../../crt1/gcrt1.S:63
   4:	0c 94 5b 00 	jmp	0xb6	; 0xb6 <__bad_interrupt>
../../../../crt1/gcrt1.S:64
   8:	0c 94 5b 00 	jmp	0xb6	; 0xb6 <__bad_interrupt>
../../../../crt1/gcrt1.S:65
   c:	0c 94 5b 00 	jmp	0xb6	; 0xb6 <__bad_interrupt>
../../../../crt1/gcrt1.S:66
  10:	0c 94 5b 00 	jmp	0xb6	; 0xb6 <__bad_interrupt>
../../../../crt1/gcrt1.S:67
  14:	0c 94 5b 00 	jmp	0xb6	; 0xb6 <__bad_interrupt>
../../../../crt1/gcrt1.S:68
  18:	0c 94 5b 00 	jmp	0xb6	; 0xb6 <__bad_interrupt>
../../../../crt1/gcrt1.S:69
  1c:	0c 94 5b 00 	jmp	0xb6	; 0xb6 <__bad_interrupt>
../../../../crt1/gcrt1.S:70
  20:	0c 94 5b 00 	jmp	0xb6	; 0xb6 <__bad_interrupt>
../../../../crt1/gcrt1.S:71
  24:	0c 94 5b 00 	jmp	0xb6	; 0xb6 <__bad_interrupt>
../../../../crt1/gcrt1.S:72
  28:	0c 94 5b 00 	jmp	0xb6	; 0xb6 <__bad_interrupt>
../../../../crt1/gcrt1.S:73
  2c:	0c 94 5b 00 	jmp	0xb6	; 0xb6 <__bad_interrupt>
../../../../crt1/gcrt1.S:74
  30:	0c 94 5b 00 	jmp	0xb6	; 0xb6 <__bad_interrupt>
../../../../crt1/gcrt1.S:75
  34:	0c 94 5b 00 	jmp	0xb6	; 0xb6 <__bad_interrupt>
../../../../crt1/gcrt1.S:76
  38:	0c 94 55 05 	jmp	0xaaa	; 0xaaa <__vector_14>
../../../../crt1/gcrt1.S:77
  3c:	0c 94 3d 05 	jmp	0xa7a	; 0xa7a <__vector_15>
../../../../crt1/gcrt1.S:78
  40:	0c 94 5b 00 	jmp	0xb6	; 0xb6 <__bad_interrupt>
../../../../crt1/gcrt1.S:79
  44:	0c 94 5b 00 	jmp	0xb6	; 0xb6 <__bad_interrupt>
../../../../crt1/gcrt1.S:80
  48:	0c 94 5b 00 	jmp	0xb6	; 0xb6 <__bad_interrupt>
../../../../crt1/gcrt1.S:81
  4c:	0c 94 5b 00 	jmp	0xb6	; 0xb6 <__bad_interrupt>
../../../../crt1/gcrt1.S:82
  50:	0c 94 5b 00 	jmp	0xb6	; 0xb6 <__bad_interrupt>
../../../../crt1/gcrt1.S:83
  54:	0c 94 5b 00 	jmp	0xb6	; 0xb6 <__bad_interrupt>
../../../../crt1/gcrt1.S:84
  58:	0c 94 e3 01 	jmp	0x3c6	; 0x3c6 <__vector_22>
../../../../crt1/gcrt1.S:85
  5c:	0c 94 a7 01 	jmp	0x34e	; 0x34e <__vector_23>
../../../../crt1/gcrt1.S:86
  60:	0c 94 81 01 	jmp	0x302	; 0x302 <__vector_24>
../../../../crt1/gcrt1.S:87
  64:	0c 94 5b 00 	jmp	0xb6	; 0xb6 <__bad_interrupt>
../../../../crt1/gcrt1.S:88
  68:	0c 94 5b 00 	jmp	0xb6	; 0xb6 <__bad_interrupt>
../../../../crt1/gcrt1.S:89
  6c:	0c 94 87 00 	jmp	0x10e	; 0x10e <__vector_27>
../../../../crt1/gcrt1.S:90
  70:	0c 94 5b 00 	jmp	0xb6	; 0xb6 <__bad_interrupt>
../../../../crt1/gcrt1.S:91
  74:	0c 94 5b 00 	jmp	0xb6	; 0xb6 <__bad_interrupt>
../../../../crt1/gcrt1.S:92
  78:	0c 94 5b 00 	jmp	0xb6	; 0xb6 <__bad_interrupt>

0000007c <__ctors_end>:
__trampolines_start():
../../../../crt1/gcrt1.S:226
  7c:	11 24       	eor	r1, r1
../../../../crt1/gcrt1.S:227
  7e:	1f be       	out	0x3f, r1	; 63
../../../../crt1/gcrt1.S:228
  80:	cf ef       	ldi	r28, 0xFF	; 255
../../../../crt1/gcrt1.S:237
  82:	d8 e0       	ldi	r29, 0x08	; 8
../../../../crt1/gcrt1.S:238
  84:	de bf       	out	0x3e, r29	; 62
../../../../crt1/gcrt1.S:240
  86:	cd bf       	out	0x3d, r28	; 61

00000088 <__do_copy_data>:
__do_copy_data():
  88:	11 e0       	ldi	r17, 0x01	; 1
  8a:	a0 e0       	ldi	r26, 0x00	; 0
  8c:	b1 e0       	ldi	r27, 0x01	; 1
  8e:	e8 e8       	ldi	r30, 0x88	; 136
  90:	fb e0       	ldi	r31, 0x0B	; 11
  92:	02 c0       	rjmp	.+4      	; 0x98 <__do_copy_data+0x10>
  94:	05 90       	lpm	r0, Z+
  96:	0d 92       	st	X+, r0
  98:	a8 30       	cpi	r26, 0x08	; 8
  9a:	b1 07       	cpc	r27, r17
  9c:	d9 f7       	brne	.-10     	; 0x94 <__do_copy_data+0xc>

0000009e <__do_clear_bss>:
__do_clear_bss():
  9e:	21 e0       	ldi	r18, 0x01	; 1
  a0:	a8 e0       	ldi	r26, 0x08	; 8
  a2:	b1 e0       	ldi	r27, 0x01	; 1
  a4:	01 c0       	rjmp	.+2      	; 0xa8 <.do_clear_bss_start>

000000a6 <.do_clear_bss_loop>:
  a6:	1d 92       	st	X+, r1

000000a8 <.do_clear_bss_start>:
  a8:	a4 34       	cpi	r26, 0x44	; 68
  aa:	b2 07       	cpc	r27, r18
  ac:	e1 f7       	brne	.-8      	; 0xa6 <.do_clear_bss_loop>
.do_clear_bss_start():
../../../../crt1/gcrt1.S:310
  ae:	0e 94 72 02 	call	0x4e4	; 0x4e4 <main>
../../../../crt1/gcrt1.S:311
  b2:	0c 94 c2 05 	jmp	0xb84	; 0xb84 <_exit>

000000b6 <__bad_interrupt>:
__vector_28():
../../../../crt1/gcrt1.S:205
  b6:	0c 94 00 00 	jmp	0	; 0x0 <__vectors>

000000ba <a4910_init>:
a4910_init():
C:/Users/Timothy/Documents/git/coastrunner_cr1_firmware_32M1/src/bldc_sensor/a4910.c:9
	//RESETn (pin PB4): pull high to enable A4910
	//DIAG   (pin PC7): A4910 outputs fault conditions on this line

#include "grBLDC.h"

void a4910_init(void)   { (DDRB |= (1<<DDB4)); } //set A4910 reset pin to output
  ba:	24 9a       	sbi	0x04, 4	; 4
  bc:	08 95       	ret

000000be <a4910_disable>:
a4910_disable():
C:/Users/Timothy/Documents/git/coastrunner_cr1_firmware_32M1/src/bldc_sensor/a4910.c:13

//////////////////////////////////////////////////////////////////////////////////////////////////

void a4910_disable(void) { (PORTB &= ~(1<<PORTB4)); } //set RESETn pin low
  be:	2c 98       	cbi	0x05, 4	; 5
  c0:	08 95       	ret

000000c2 <a4910_enable>:
a4910_enable():
C:/Users/Timothy/Documents/git/coastrunner_cr1_firmware_32M1/src/bldc_sensor/a4910.c:14
  c2:	2c 9a       	sbi	0x05, 4	; 5
  c4:	08 95       	ret

000000c6 <filteredValue_counts>:
filteredValue_counts():
C:/Users/Timothy/Documents/git/coastrunner_cr1_firmware_32M1/src/bldc_sensor/adc.c:25

    static uint16_t lastN_samples[NUM_ADC_SAMPLES_TO_AVERAGE] = {0};

    static uint8_t index_latestSample = 0;

    lastN_samples[index_latestSample] = latest10bSample; //store latest sample
  c6:	20 91 28 01 	lds	r18, 0x0128	; 0x800128 <index_latestSample.1979>
  ca:	e2 2f       	mov	r30, r18
  cc:	f0 e0       	ldi	r31, 0x00	; 0
  ce:	ee 0f       	add	r30, r30
  d0:	ff 1f       	adc	r31, r31
  d2:	e8 5f       	subi	r30, 0xF8	; 248
  d4:	fe 4f       	sbci	r31, 0xFE	; 254
  d6:	91 83       	std	Z+1, r25	; 0x01
  d8:	80 83       	st	Z, r24
C:/Users/Timothy/Documents/git/coastrunner_cr1_firmware_32M1/src/bldc_sensor/adc.c:26
    if(++index_latestSample == NUM_ADC_SAMPLES_TO_AVERAGE) { index_latestSample = 0; } //circular buffer rollover
  da:	2f 5f       	subi	r18, 0xFF	; 255
  dc:	20 31       	cpi	r18, 0x10	; 16
  de:	a1 f0       	breq	.+40     	; 0x108 <filteredValue_counts+0x42>
  e0:	20 93 28 01 	sts	0x0128, r18	; 0x800128 <index_latestSample.1979>
  e4:	e8 e0       	ldi	r30, 0x08	; 8
  e6:	f1 e0       	ldi	r31, 0x01	; 1
C:/Users/Timothy/Documents/git/coastrunner_cr1_firmware_32M1/src/bldc_sensor/adc.c:28

    uint16_t sumOfArrayElements = 0;
  e8:	90 e0       	ldi	r25, 0x00	; 0
  ea:	80 e0       	ldi	r24, 0x00	; 0
C:/Users/Timothy/Documents/git/coastrunner_cr1_firmware_32M1/src/bldc_sensor/adc.c:30 (discriminator 3)

    for(uint8_t ii=0; ii<NUM_ADC_SAMPLES_TO_AVERAGE; ii++) { sumOfArrayElements += lastN_samples[ii]; }
  ec:	21 91       	ld	r18, Z+
  ee:	31 91       	ld	r19, Z+
  f0:	82 0f       	add	r24, r18
  f2:	93 1f       	adc	r25, r19
  f4:	21 e0       	ldi	r18, 0x01	; 1
  f6:	e8 32       	cpi	r30, 0x28	; 40
  f8:	f2 07       	cpc	r31, r18
  fa:	c1 f7       	brne	.-16     	; 0xec <filteredValue_counts+0x26>
C:/Users/Timothy/Documents/git/coastrunner_cr1_firmware_32M1/src/bldc_sensor/adc.c:36

    return (sumOfArrayElements>>POWER_OF__NUM_ADC_SAMPLES_TO_AVERAGE);
#else
	return latest10bSample;
#endif
}
  fc:	24 e0       	ldi	r18, 0x04	; 4
  fe:	96 95       	lsr	r25
 100:	87 95       	ror	r24
 102:	2a 95       	dec	r18
 104:	e1 f7       	brne	.-8      	; 0xfe <filteredValue_counts+0x38>
 106:	08 95       	ret
C:/Users/Timothy/Documents/git/coastrunner_cr1_firmware_32M1/src/bldc_sensor/adc.c:26 (discriminator 1)
    static uint16_t lastN_samples[NUM_ADC_SAMPLES_TO_AVERAGE] = {0};

    static uint8_t index_latestSample = 0;

    lastN_samples[index_latestSample] = latest10bSample; //store latest sample
    if(++index_latestSample == NUM_ADC_SAMPLES_TO_AVERAGE) { index_latestSample = 0; } //circular buffer rollover
 108:	10 92 28 01 	sts	0x0128, r1	; 0x800128 <index_latestSample.1979>
 10c:	eb cf       	rjmp	.-42     	; 0xe4 <filteredValue_counts+0x1e>

0000010e <__vector_27>:
__vector_27():
C:/Users/Timothy/Documents/git/coastrunner_cr1_firmware_32M1/src/bldc_sensor/adc.c:44

//Interrupt generated each time ADC conversion finishes
//using an interrupt so we can add other ADC channels later
//with just one channel, we could set the ADC to free running mode (and remove this ISR)
ISR(ADC_vect)
{
 10e:	1f 92       	push	r1
 110:	0f 92       	push	r0
 112:	0f b6       	in	r0, 0x3f	; 63
 114:	0f 92       	push	r0
 116:	11 24       	eor	r1, r1
 118:	2f 93       	push	r18
 11a:	3f 93       	push	r19
 11c:	4f 93       	push	r20
 11e:	5f 93       	push	r21
 120:	6f 93       	push	r22
 122:	7f 93       	push	r23
 124:	8f 93       	push	r24
 126:	9f 93       	push	r25
 128:	af 93       	push	r26
 12a:	bf 93       	push	r27
 12c:	cf 93       	push	r28
 12e:	df 93       	push	r29
 130:	ef 93       	push	r30
 132:	ff 93       	push	r31
C:/Users/Timothy/Documents/git/coastrunner_cr1_firmware_32M1/src/bldc_sensor/adc.c:45
  if(ADC_stateMachine == ADC_MEASURING_GOAL_RPM)
 134:	80 91 00 01 	lds	r24, 0x0100	; 0x800100 <__DATA_REGION_ORIGIN__>
 138:	81 30       	cpi	r24, 0x01	; 1
 13a:	f1 f4       	brne	.+60     	; 0x178 <__vector_27+0x6a>
C:/Users/Timothy/Documents/git/coastrunner_cr1_firmware_32M1/src/bldc_sensor/adc.c:47
  {
	uint16_t adcResult_counts = Adc_get_10_bits_result(); //~520 counts max (grBLDC goalRPM has DIV2 voltage divider LPF)
 13c:	20 91 78 00 	lds	r18, 0x0078	; 0x800078 <__TEXT_REGION_LENGTH__+0x7f8078>
 140:	90 91 79 00 	lds	r25, 0x0079	; 0x800079 <__TEXT_REGION_LENGTH__+0x7f8079>
 144:	89 2f       	mov	r24, r25
 146:	90 e0       	ldi	r25, 0x00	; 0
 148:	98 2f       	mov	r25, r24
 14a:	88 27       	eor	r24, r24
C:/Users/Timothy/Documents/git/coastrunner_cr1_firmware_32M1/src/bldc_sensor/adc.c:49

	adcResult_counts = filteredValue_counts(adcResult_counts);
 14c:	82 0f       	add	r24, r18
 14e:	91 1d       	adc	r25, r1
 150:	0e 94 63 00 	call	0xc6	; 0xc6 <filteredValue_counts>
C:/Users/Timothy/Documents/git/coastrunner_cr1_firmware_32M1/src/bldc_sensor/adc.c:55

    #define ADC_COUNTS_TO_RPM__GAIN     14
    #define ADC_COUNTS_TO_RPM__OFFSET 1360
    //y=mx+b //see ../Documentation/RPM LUT.ods
	
    uint16_t adcResultScaled_goalRPM = (uint16_t)(ADC_COUNTS_TO_RPM__GAIN * adcResult_counts) + ADC_COUNTS_TO_RPM__OFFSET;
 154:	2e e0       	ldi	r18, 0x0E	; 14
 156:	28 9f       	mul	r18, r24
 158:	e0 01       	movw	r28, r0
 15a:	29 9f       	mul	r18, r25
 15c:	d0 0d       	add	r29, r0
 15e:	11 24       	eor	r1, r1
 160:	c0 5b       	subi	r28, 0xB0	; 176
 162:	da 4f       	sbci	r29, 0xFA	; 250
C:/Users/Timothy/Documents/git/coastrunner_cr1_firmware_32M1/src/bldc_sensor/adc.c:57

	if(adcResultScaled_goalRPM < MIN_ALLOWED_RPM) { a4910_disable(); }
 164:	cc 3d       	cpi	r28, 0xDC	; 220
 166:	85 e0       	ldi	r24, 0x05	; 5
 168:	d8 07       	cpc	r29, r24
 16a:	d8 f4       	brcc	.+54     	; 0x1a2 <__vector_27+0x94>
C:/Users/Timothy/Documents/git/coastrunner_cr1_firmware_32M1/src/bldc_sensor/adc.c:57 (discriminator 1)
 16c:	0e 94 5f 00 	call	0xbe	; 0xbe <a4910_disable>
adc_goalRPM_set():
C:/Users/Timothy/Documents/git/coastrunner_cr1_firmware_32M1/src/bldc_sensor/adc.c:150

uint16_t adc_goalRPM_get(void) { return goalSpeed_RPM; }

////////////////////////////////////////////////////////////////////////////////////////

void adc_goalRPM_set(uint16_t newRPM) { goalSpeed_RPM = newRPM; }
 170:	d0 93 2b 01 	sts	0x012B, r29	; 0x80012b <goalSpeed_RPM+0x1>
 174:	c0 93 2a 01 	sts	0x012A, r28	; 0x80012a <goalSpeed_RPM>
__vector_27():
C:/Users/Timothy/Documents/git/coastrunner_cr1_firmware_32M1/src/bldc_sensor/adc.c:77

  // else if(ADC_stateMachine == ADC_MEASURING_CURRENT_C)
    //Do something with the measurement of Phase C

  
  ADC_hardwareStatus = ADCFREE; //ADC no longer in use
 178:	10 92 29 01 	sts	0x0129, r1	; 0x800129 <ADC_hardwareStatus>
C:/Users/Timothy/Documents/git/coastrunner_cr1_firmware_32M1/src/bldc_sensor/adc.c:78
}
 17c:	ff 91       	pop	r31
 17e:	ef 91       	pop	r30
 180:	df 91       	pop	r29
 182:	cf 91       	pop	r28
 184:	bf 91       	pop	r27
 186:	af 91       	pop	r26
 188:	9f 91       	pop	r25
 18a:	8f 91       	pop	r24
 18c:	7f 91       	pop	r23
 18e:	6f 91       	pop	r22
 190:	5f 91       	pop	r21
 192:	4f 91       	pop	r20
 194:	3f 91       	pop	r19
 196:	2f 91       	pop	r18
 198:	0f 90       	pop	r0
 19a:	0f be       	out	0x3f, r0	; 63
 19c:	0f 90       	pop	r0
 19e:	1f 90       	pop	r1
 1a0:	18 95       	reti
C:/Users/Timothy/Documents/git/coastrunner_cr1_firmware_32M1/src/bldc_sensor/adc.c:58
    //y=mx+b //see ../Documentation/RPM LUT.ods
	
    uint16_t adcResultScaled_goalRPM = (uint16_t)(ADC_COUNTS_TO_RPM__GAIN * adcResult_counts) + ADC_COUNTS_TO_RPM__OFFSET;

	if(adcResultScaled_goalRPM < MIN_ALLOWED_RPM) { a4910_disable(); }
	else                                          { a4910_enable(); }
 1a2:	0e 94 61 00 	call	0xc2	; 0xc2 <a4910_enable>
 1a6:	e4 cf       	rjmp	.-56     	; 0x170 <__vector_27+0x62>

000001a8 <adc_init>:
adc_init():
C:/Users/Timothy/Documents/git/coastrunner_cr1_firmware_32M1/src/bldc_sensor/adc.c:83
}

//////////////////////////////////////////////////////////////////////////////////////////////////

void adc_init(void)
{
 1a8:	cf 93       	push	r28
 1aa:	df 93       	push	r29
C:/Users/Timothy/Documents/git/coastrunner_cr1_firmware_32M1/src/bldc_sensor/adc.c:86
  //disable digital input circuitry on all pins used as analog inputs.
  //reduces power consumption, particularly when an analog signal is near Vcc/2.
  DIDR1 |= (1<<ADC9D)|(1<<ADC8D); //CUR_C & CUR_B ADC inputs
 1ac:	ef e7       	ldi	r30, 0x7F	; 127
 1ae:	f0 e0       	ldi	r31, 0x00	; 0
 1b0:	80 81       	ld	r24, Z
 1b2:	83 60       	ori	r24, 0x03	; 3
 1b4:	80 83       	st	Z, r24
C:/Users/Timothy/Documents/git/coastrunner_cr1_firmware_32M1/src/bldc_sensor/adc.c:87
  DIDR0 |= (1<<ADC6D)|(1<<ADC5D); //CUR_A & goalRPM ADC inputs
 1b6:	ee e7       	ldi	r30, 0x7E	; 126
 1b8:	f0 e0       	ldi	r31, 0x00	; 0
 1ba:	80 81       	ld	r24, Z
 1bc:	80 66       	ori	r24, 0x60	; 96
 1be:	80 83       	st	Z, r24
C:/Users/Timothy/Documents/git/coastrunner_cr1_firmware_32M1/src/bldc_sensor/adc.c:93
  //CUR_A   is Pin PB5/ADC6
  //CUR_B   is Pin PC5/ADC9
  //CUR_C   is Pin PC4/ADC8
  //goalRPM is PIN PB2/ADC5

  Adc_enable();
 1c0:	ea e7       	ldi	r30, 0x7A	; 122
 1c2:	f0 e0       	ldi	r31, 0x00	; 0
 1c4:	80 81       	ld	r24, Z
 1c6:	80 68       	ori	r24, 0x80	; 128
 1c8:	80 83       	st	Z, r24
C:/Users/Timothy/Documents/git/coastrunner_cr1_firmware_32M1/src/bldc_sensor/adc.c:94
  Adc_set_prescaler(ADC_DIV_CLOCK_BY_4);
 1ca:	80 81       	ld	r24, Z
 1cc:	88 7f       	andi	r24, 0xF8	; 248
 1ce:	80 83       	st	Z, r24
 1d0:	80 81       	ld	r24, Z
 1d2:	82 60       	ori	r24, 0x02	; 2
 1d4:	80 83       	st	Z, r24
C:/Users/Timothy/Documents/git/coastrunner_cr1_firmware_32M1/src/bldc_sensor/adc.c:96

  Adc_enable_vcc_vref();
 1d6:	ac e7       	ldi	r26, 0x7C	; 124
 1d8:	b0 e0       	ldi	r27, 0x00	; 0
 1da:	8c 91       	ld	r24, X
 1dc:	8f 77       	andi	r24, 0x7F	; 127
 1de:	8c 93       	st	X, r24
 1e0:	8c 91       	ld	r24, X
 1e2:	80 64       	ori	r24, 0x40	; 64
 1e4:	8c 93       	st	X, r24
C:/Users/Timothy/Documents/git/coastrunner_cr1_firmware_32M1/src/bldc_sensor/adc.c:97
  ADCSRB |= (1<<AREFEN); //connect AREF pin to the internal analog reference.
 1e6:	cb e7       	ldi	r28, 0x7B	; 123
 1e8:	d0 e0       	ldi	r29, 0x00	; 0
 1ea:	88 81       	ld	r24, Y
 1ec:	80 62       	ori	r24, 0x20	; 32
 1ee:	88 83       	st	Y, r24
C:/Users/Timothy/Documents/git/coastrunner_cr1_firmware_32M1/src/bldc_sensor/adc.c:98
  ADCSRB &= ~(1<<ISRCEN); //disable 100 uA current source on AREF pin.
 1f0:	88 81       	ld	r24, Y
 1f2:	8f 7b       	andi	r24, 0xBF	; 191
 1f4:	88 83       	st	Y, r24
C:/Users/Timothy/Documents/git/coastrunner_cr1_firmware_32M1/src/bldc_sensor/adc.c:100

  Adc_select_channel(ADC_INPUT_ADC5);  //goalRPM
 1f6:	8c 91       	ld	r24, X
 1f8:	80 7e       	andi	r24, 0xE0	; 224
 1fa:	85 60       	ori	r24, 0x05	; 5
 1fc:	8c 93       	st	X, r24
C:/Users/Timothy/Documents/git/coastrunner_cr1_firmware_32M1/src/bldc_sensor/adc.c:102

  Adc_right_adjust_result(); //0b------xx xxxxxxxx
 1fe:	8c 91       	ld	r24, X
 200:	8f 7d       	andi	r24, 0xDF	; 223
 202:	8c 93       	st	X, r24
C:/Users/Timothy/Documents/git/coastrunner_cr1_firmware_32M1/src/bldc_sensor/adc.c:103
  Adc_enable_high_speed_mode();
 204:	88 81       	ld	r24, Y
 206:	80 68       	ori	r24, 0x80	; 128
 208:	88 83       	st	Y, r24
C:/Users/Timothy/Documents/git/coastrunner_cr1_firmware_32M1/src/bldc_sensor/adc.c:104
  adc_generateInterruptAfterConversion(); 
 20a:	80 81       	ld	r24, Z
 20c:	88 60       	ori	r24, 0x08	; 8
 20e:	80 83       	st	Z, r24
C:/Users/Timothy/Documents/git/coastrunner_cr1_firmware_32M1/src/bldc_sensor/adc.c:105
}
 210:	df 91       	pop	r29
 212:	cf 91       	pop	r28
 214:	08 95       	ret

00000216 <adc_scheduler>:
adc_scheduler():
C:/Users/Timothy/Documents/git/coastrunner_cr1_firmware_32M1/src/bldc_sensor/adc.c:111

//////////////////////////////////////////////////////////////////////////////////////////////////

void adc_scheduler(uint8_t channel)
{ 
  if(ADC_hardwareStatus == ADCFREE)
 216:	90 91 29 01 	lds	r25, 0x0129	; 0x800129 <ADC_hardwareStatus>
 21a:	91 11       	cpse	r25, r1
 21c:	20 c0       	rjmp	.+64     	; 0x25e <adc_scheduler+0x48>
C:/Users/Timothy/Documents/git/coastrunner_cr1_firmware_32M1/src/bldc_sensor/adc.c:113
  {
    ADC_hardwareStatus = ADCBUSY;
 21e:	91 e0       	ldi	r25, 0x01	; 1
 220:	90 93 29 01 	sts	0x0129, r25	; 0x800129 <ADC_hardwareStatus>
C:/Users/Timothy/Documents/git/coastrunner_cr1_firmware_32M1/src/bldc_sensor/adc.c:115

    switch(channel)
 224:	82 30       	cpi	r24, 0x02	; 2
 226:	e1 f0       	breq	.+56     	; 0x260 <adc_scheduler+0x4a>
 228:	28 f4       	brcc	.+10     	; 0x234 <adc_scheduler+0x1e>
 22a:	88 23       	and	r24, r24
 22c:	41 f0       	breq	.+16     	; 0x23e <adc_scheduler+0x28>
 22e:	81 30       	cpi	r24, 0x01	; 1
 230:	49 f0       	breq	.+18     	; 0x244 <adc_scheduler+0x2e>
 232:	08 95       	ret
 234:	83 30       	cpi	r24, 0x03	; 3
 236:	c9 f0       	breq	.+50     	; 0x26a <adc_scheduler+0x54>
 238:	84 30       	cpi	r24, 0x04	; 4
 23a:	e1 f0       	breq	.+56     	; 0x274 <adc_scheduler+0x5e>
 23c:	08 95       	ret
C:/Users/Timothy/Documents/git/coastrunner_cr1_firmware_32M1/src/bldc_sensor/adc.c:118
    {
      case ADC_MEASURING_NEXT:
        ADC_hardwareStatus = ADCFREE; //ADC not in use
 23e:	10 92 29 01 	sts	0x0129, r1	; 0x800129 <ADC_hardwareStatus>
C:/Users/Timothy/Documents/git/coastrunner_cr1_firmware_32M1/src/bldc_sensor/adc.c:119
        break;
 242:	08 95       	ret
C:/Users/Timothy/Documents/git/coastrunner_cr1_firmware_32M1/src/bldc_sensor/adc.c:122

      case ADC_MEASURING_GOAL_RPM:
        Adc_start_conv_channel(ADC_INPUT_ADC5); //configure ADC to measure desired RPM (from grbl)
 244:	90 91 7c 00 	lds	r25, 0x007C	; 0x80007c <__TEXT_REGION_LENGTH__+0x7f807c>
 248:	90 7e       	andi	r25, 0xE0	; 224
 24a:	95 60       	ori	r25, 0x05	; 5
C:/Users/Timothy/Documents/git/coastrunner_cr1_firmware_32M1/src/bldc_sensor/adc.c:137
        Adc_start_conv_channel(ADC_INPUT_ADC9); //configure ADC to measure Phase B Current
        ADC_stateMachine = ADC_MEASURING_CURRENT_B;
        break;

      case ADC_MEASURING_CURRENT_C:
        Adc_start_conv_channel(ADC_INPUT_ADC8); //configure ADC to measure Phase C Current
 24c:	90 93 7c 00 	sts	0x007C, r25	; 0x80007c <__TEXT_REGION_LENGTH__+0x7f807c>
 250:	90 91 7a 00 	lds	r25, 0x007A	; 0x80007a <__TEXT_REGION_LENGTH__+0x7f807a>
 254:	90 64       	ori	r25, 0x40	; 64
 256:	90 93 7a 00 	sts	0x007A, r25	; 0x80007a <__TEXT_REGION_LENGTH__+0x7f807a>
C:/Users/Timothy/Documents/git/coastrunner_cr1_firmware_32M1/src/bldc_sensor/adc.c:138
        ADC_stateMachine = ADC_MEASURING_CURRENT_C;
 25a:	80 93 00 01 	sts	0x0100, r24	; 0x800100 <__DATA_REGION_ORIGIN__>
C:/Users/Timothy/Documents/git/coastrunner_cr1_firmware_32M1/src/bldc_sensor/adc.c:142
        break;
    }
  }
}
 25e:	08 95       	ret
C:/Users/Timothy/Documents/git/coastrunner_cr1_firmware_32M1/src/bldc_sensor/adc.c:127
        Adc_start_conv_channel(ADC_INPUT_ADC5); //configure ADC to measure desired RPM (from grbl)
        ADC_stateMachine = ADC_MEASURING_GOAL_RPM;
        break;

      case ADC_MEASURING_CURRENT_A:
        Adc_start_conv_channel(ADC_INPUT_ADC6); //configure ADC to measure Phase A Current
 260:	90 91 7c 00 	lds	r25, 0x007C	; 0x80007c <__TEXT_REGION_LENGTH__+0x7f807c>
 264:	90 7e       	andi	r25, 0xE0	; 224
 266:	96 60       	ori	r25, 0x06	; 6
 268:	f1 cf       	rjmp	.-30     	; 0x24c <adc_scheduler+0x36>
C:/Users/Timothy/Documents/git/coastrunner_cr1_firmware_32M1/src/bldc_sensor/adc.c:132
        ADC_stateMachine = ADC_MEASURING_CURRENT_A;
        break;

      case ADC_MEASURING_CURRENT_B:
        Adc_start_conv_channel(ADC_INPUT_ADC9); //configure ADC to measure Phase B Current
 26a:	90 91 7c 00 	lds	r25, 0x007C	; 0x80007c <__TEXT_REGION_LENGTH__+0x7f807c>
 26e:	90 7e       	andi	r25, 0xE0	; 224
 270:	99 60       	ori	r25, 0x09	; 9
 272:	ec cf       	rjmp	.-40     	; 0x24c <adc_scheduler+0x36>
C:/Users/Timothy/Documents/git/coastrunner_cr1_firmware_32M1/src/bldc_sensor/adc.c:137
        ADC_stateMachine = ADC_MEASURING_CURRENT_B;
        break;

      case ADC_MEASURING_CURRENT_C:
        Adc_start_conv_channel(ADC_INPUT_ADC8); //configure ADC to measure Phase C Current
 274:	90 91 7c 00 	lds	r25, 0x007C	; 0x80007c <__TEXT_REGION_LENGTH__+0x7f807c>
 278:	90 7e       	andi	r25, 0xE0	; 224
 27a:	98 60       	ori	r25, 0x08	; 8
 27c:	e7 cf       	rjmp	.-50     	; 0x24c <adc_scheduler+0x36>

0000027e <adc_goalRPM_get>:
adc_goalRPM_get():
C:/Users/Timothy/Documents/git/coastrunner_cr1_firmware_32M1/src/bldc_sensor/adc.c:146
  }
}

////////////////////////////////////////////////////////////////////////////////////////

uint16_t adc_goalRPM_get(void) { return goalSpeed_RPM; }
 27e:	80 91 2a 01 	lds	r24, 0x012A	; 0x80012a <goalSpeed_RPM>
 282:	90 91 2b 01 	lds	r25, 0x012B	; 0x80012b <goalSpeed_RPM+0x1>
 286:	08 95       	ret

00000288 <adc_goalRPM_set>:
adc_goalRPM_set():
C:/Users/Timothy/Documents/git/coastrunner_cr1_firmware_32M1/src/bldc_sensor/adc.c:150

////////////////////////////////////////////////////////////////////////////////////////

void adc_goalRPM_set(uint16_t newRPM) { goalSpeed_RPM = newRPM; }
 288:	90 93 2b 01 	sts	0x012B, r25	; 0x80012b <goalSpeed_RPM+0x1>
 28c:	80 93 2a 01 	sts	0x012A, r24	; 0x80012a <goalSpeed_RPM>
 290:	08 95       	ret

00000292 <unoPinA2_input>:
unoPinA2_input():
C:/Users/Timothy/Documents/git/coastrunner_cr1_firmware_32M1/src/bldc_sensor/debug.c:4
#include "grBLDC.h"

void unoPinA4_input(void) { SLOWDOWN_DDR &= ~(SLOWDOWN_MASK); }
void unoPinA2_input(void) {      PD3_DDR &= ~(     PD3_MASK); }
 292:	53 98       	cbi	0x0a, 3	; 10
 294:	08 95       	ret

00000296 <unoPinA4_high>:
unoPinA4_high():
C:/Users/Timothy/Documents/git/coastrunner_cr1_firmware_32M1/src/bldc_sensor/debug.c:6

void unoPinA4_high(void) { SLOWDOWN_DDR |= SLOWDOWN_MASK; SLOWDOWN_PORT |= SLOWDOWN_MASK; }
 296:	3b 9a       	sbi	0x07, 3	; 7
 298:	43 9a       	sbi	0x08, 3	; 8
 29a:	08 95       	ret

0000029c <unoPinA2_high>:
unoPinA2_high():
C:/Users/Timothy/Documents/git/coastrunner_cr1_firmware_32M1/src/bldc_sensor/debug.c:7
void unoPinA2_high(void) {      PD3_DDR |=      PD3_MASK;      PD3_PORT |=      PD3_MASK; }
 29c:	53 9a       	sbi	0x0a, 3	; 10
 29e:	5b 9a       	sbi	0x0b, 3	; 11
 2a0:	08 95       	ret

000002a2 <unoPinA4_low>:
unoPinA4_low():
C:/Users/Timothy/Documents/git/coastrunner_cr1_firmware_32M1/src/bldc_sensor/debug.c:9

void unoPinA4_low(void) { SLOWDOWN_DDR |= SLOWDOWN_MASK; SLOWDOWN_PORT &= ~(SLOWDOWN_MASK); }
 2a2:	3b 9a       	sbi	0x07, 3	; 7
 2a4:	43 98       	cbi	0x08, 3	; 8
 2a6:	08 95       	ret

000002a8 <unoPinA2_low>:
unoPinA2_low():
C:/Users/Timothy/Documents/git/coastrunner_cr1_firmware_32M1/src/bldc_sensor/debug.c:10
 2a8:	53 9a       	sbi	0x0a, 3	; 10
 2aa:	5b 98       	cbi	0x0b, 3	; 11
 2ac:	08 95       	ret

000002ae <hall_init>:
hall_init():
C:/Users/Timothy/Documents/git/coastrunner_cr1_firmware_32M1/src/bldc_sensor/hall.c:11

void hall_init(void)
{
  // Use PCINT17 to detect change on H1 (A) sensor
  // Use PCINT18 to detect change on H3 (C) sensor
  PCMSK2 = ( (1<<PCINT17) | (1<<PCINT18) );
 2ae:	86 e0       	ldi	r24, 0x06	; 6
 2b0:	80 93 6c 00 	sts	0x006C, r24	; 0x80006c <__TEXT_REGION_LENGTH__+0x7f806c>
C:/Users/Timothy/Documents/git/coastrunner_cr1_firmware_32M1/src/bldc_sensor/hall.c:14

  // Use PCINT9 to detect change on H2 (B) sensor
  PCMSK1 = (1<<PCINT9);
 2b4:	82 e0       	ldi	r24, 0x02	; 2
 2b6:	80 93 6b 00 	sts	0x006B, r24	; 0x80006b <__TEXT_REGION_LENGTH__+0x7f806b>
C:/Users/Timothy/Documents/git/coastrunner_cr1_firmware_32M1/src/bldc_sensor/hall.c:17
  
  // Enable pin change interrupts on PCMSK1 & 2
  PCICR |= ( (1<<PCIE1) | (1<<PCIE2) );
 2ba:	e8 e6       	ldi	r30, 0x68	; 104
 2bc:	f0 e0       	ldi	r31, 0x00	; 0
 2be:	80 81       	ld	r24, Z
 2c0:	86 60       	ori	r24, 0x06	; 6
 2c2:	80 83       	st	Z, r24
C:/Users/Timothy/Documents/git/coastrunner_cr1_firmware_32M1/src/bldc_sensor/hall.c:18
}
 2c4:	08 95       	ret

000002c6 <hall_getPosition>:
hall_getPosition():
C:/Users/Timothy/Documents/git/coastrunner_cr1_firmware_32M1/src/bldc_sensor/hall.c:28
{
  static uint8_t state_previous = 0;
  static uint8_t numConsecutiveInvalidStates = 0;
  
  //Build Hall state 0b0000 0BGY (B=BLU, G=GRN, Y=YEL)
  uint8_t state = ( (( (PIND & (1<<PIND1)) >> PIND1) << 2) |  //Hall BLU //MSB
 2c6:	89 b1       	in	r24, 0x09	; 9
C:/Users/Timothy/Documents/git/coastrunner_cr1_firmware_32M1/src/bldc_sensor/hall.c:29
                    (( (PINC & (1<<PINC1)) >> PINC1) << 0) |  //Hall YEL //LSB
 2c8:	26 b1       	in	r18, 0x06	; 6
C:/Users/Timothy/Documents/git/coastrunner_cr1_firmware_32M1/src/bldc_sensor/hall.c:30
                    (( (PIND & (1<<PIND2)) >> PIND2) << 1) ); //Hall GRN
 2ca:	99 b1       	in	r25, 0x09	; 9
C:/Users/Timothy/Documents/git/coastrunner_cr1_firmware_32M1/src/bldc_sensor/hall.c:28
{
  static uint8_t state_previous = 0;
  static uint8_t numConsecutiveInvalidStates = 0;
  
  //Build Hall state 0b0000 0BGY (B=BLU, G=GRN, Y=YEL)
  uint8_t state = ( (( (PIND & (1<<PIND1)) >> PIND1) << 2) |  //Hall BLU //MSB
 2cc:	88 0f       	add	r24, r24
 2ce:	84 70       	andi	r24, 0x04	; 4
C:/Users/Timothy/Documents/git/coastrunner_cr1_firmware_32M1/src/bldc_sensor/hall.c:30
                    (( (PINC & (1<<PINC1)) >> PINC1) << 0) |  //Hall YEL //LSB
                    (( (PIND & (1<<PIND2)) >> PIND2) << 1) ); //Hall GRN
 2d0:	96 95       	lsr	r25
 2d2:	92 70       	andi	r25, 0x02	; 2
C:/Users/Timothy/Documents/git/coastrunner_cr1_firmware_32M1/src/bldc_sensor/hall.c:29
  static uint8_t state_previous = 0;
  static uint8_t numConsecutiveInvalidStates = 0;
  
  //Build Hall state 0b0000 0BGY (B=BLU, G=GRN, Y=YEL)
  uint8_t state = ( (( (PIND & (1<<PIND1)) >> PIND1) << 2) |  //Hall BLU //MSB
                    (( (PINC & (1<<PINC1)) >> PINC1) << 0) |  //Hall YEL //LSB
 2d4:	89 2b       	or	r24, r25
 2d6:	21 fb       	bst	r18, 1
 2d8:	99 27       	eor	r25, r25
 2da:	90 f9       	bld	r25, 0
 2dc:	89 2b       	or	r24, r25
C:/Users/Timothy/Documents/git/coastrunner_cr1_firmware_32M1/src/bldc_sensor/hall.c:32
                    (( (PIND & (1<<PIND2)) >> PIND2) << 1) ); //Hall GRN

  if( ((state == 0b00000000) || (state == 0b00000111)) && //invalid Hall state (due to H->L or L->H transition)
 2de:	11 f0       	breq	.+4      	; 0x2e4 <hall_getPosition+0x1e>
C:/Users/Timothy/Documents/git/coastrunner_cr1_firmware_32M1/src/bldc_sensor/hall.c:32 (discriminator 2)
 2e0:	87 30       	cpi	r24, 0x07	; 7
 2e2:	51 f4       	brne	.+20     	; 0x2f8 <hall_getPosition+0x32>
C:/Users/Timothy/Documents/git/coastrunner_cr1_firmware_32M1/src/bldc_sensor/hall.c:33 (discriminator 3)
      (numConsecutiveInvalidStates < 7)                ) 
 2e4:	90 91 2e 01 	lds	r25, 0x012E	; 0x80012e <numConsecutiveInvalidStates.1979>
C:/Users/Timothy/Documents/git/coastrunner_cr1_firmware_32M1/src/bldc_sensor/hall.c:32 (discriminator 3)
  //Build Hall state 0b0000 0BGY (B=BLU, G=GRN, Y=YEL)
  uint8_t state = ( (( (PIND & (1<<PIND1)) >> PIND1) << 2) |  //Hall BLU //MSB
                    (( (PINC & (1<<PINC1)) >> PINC1) << 0) |  //Hall YEL //LSB
                    (( (PIND & (1<<PIND2)) >> PIND2) << 1) ); //Hall GRN

  if( ((state == 0b00000000) || (state == 0b00000111)) && //invalid Hall state (due to H->L or L->H transition)
 2e8:	97 30       	cpi	r25, 0x07	; 7
 2ea:	30 f4       	brcc	.+12     	; 0x2f8 <hall_getPosition+0x32>
C:/Users/Timothy/Documents/git/coastrunner_cr1_firmware_32M1/src/bldc_sensor/hall.c:36
      (numConsecutiveInvalidStates < 7)                ) 
  {
	  //hall states in transition
	  state = state_previous;
 2ec:	80 91 2d 01 	lds	r24, 0x012D	; 0x80012d <state_previous.1978>
C:/Users/Timothy/Documents/git/coastrunner_cr1_firmware_32M1/src/bldc_sensor/hall.c:37
	  numConsecutiveInvalidStates++;
 2f0:	9f 5f       	subi	r25, 0xFF	; 255
 2f2:	90 93 2e 01 	sts	0x012E, r25	; 0x80012e <numConsecutiveInvalidStates.1979>
 2f6:	08 95       	ret
C:/Users/Timothy/Documents/git/coastrunner_cr1_firmware_32M1/src/bldc_sensor/hall.c:41
  }
  else //valid Hall state (or motor is stalled)
  {   
	  state_previous = state; //store for next iteration
 2f8:	80 93 2d 01 	sts	0x012D, r24	; 0x80012d <state_previous.1978>
C:/Users/Timothy/Documents/git/coastrunner_cr1_firmware_32M1/src/bldc_sensor/hall.c:42
	  numConsecutiveInvalidStates = 0;
 2fc:	10 92 2e 01 	sts	0x012E, r1	; 0x80012e <numConsecutiveInvalidStates.1979>
C:/Users/Timothy/Documents/git/coastrunner_cr1_firmware_32M1/src/bldc_sensor/hall.c:46
  } 
	  
  return state;
}
 300:	08 95       	ret

00000302 <__vector_24>:
__vector_24():
C:/Users/Timothy/Documents/git/coastrunner_cr1_firmware_32M1/src/bldc_sensor/hall.c:52

////////////////////////////////////////////////////////////////////////////////////////

//Configure interrupt vectors (each time a hall sensor state changes)
ISR( HALL_AC_vect )  //Hall_A & Hall_C share the same interrupt vector byte
{
 302:	1f 92       	push	r1
 304:	0f 92       	push	r0
 306:	0f b6       	in	r0, 0x3f	; 63
 308:	0f 92       	push	r0
 30a:	11 24       	eor	r1, r1
 30c:	2f 93       	push	r18
 30e:	3f 93       	push	r19
 310:	4f 93       	push	r20
 312:	5f 93       	push	r21
 314:	6f 93       	push	r22
 316:	7f 93       	push	r23
 318:	8f 93       	push	r24
 31a:	9f 93       	push	r25
 31c:	af 93       	push	r26
 31e:	bf 93       	push	r27
 320:	ef 93       	push	r30
 322:	ff 93       	push	r31
C:/Users/Timothy/Documents/git/coastrunner_cr1_firmware_32M1/src/bldc_sensor/hall.c:53
  psc_commutateOutputWaveforms( pid_dutyCycle_get() ); // Set duty cycle of output table
 324:	0e 94 ce 02 	call	0x59c	; 0x59c <pid_dutyCycle_get>
 328:	0e 94 25 05 	call	0xa4a	; 0xa4a <psc_commutateOutputWaveforms>
C:/Users/Timothy/Documents/git/coastrunner_cr1_firmware_32M1/src/bldc_sensor/hall.c:54
}
 32c:	ff 91       	pop	r31
 32e:	ef 91       	pop	r30
 330:	bf 91       	pop	r27
 332:	af 91       	pop	r26
 334:	9f 91       	pop	r25
 336:	8f 91       	pop	r24
 338:	7f 91       	pop	r23
 33a:	6f 91       	pop	r22
 33c:	5f 91       	pop	r21
 33e:	4f 91       	pop	r20
 340:	3f 91       	pop	r19
 342:	2f 91       	pop	r18
 344:	0f 90       	pop	r0
 346:	0f be       	out	0x3f, r0	; 63
 348:	0f 90       	pop	r0
 34a:	1f 90       	pop	r1
 34c:	18 95       	reti

0000034e <__vector_23>:
__vector_23():
C:/Users/Timothy/Documents/git/coastrunner_cr1_firmware_32M1/src/bldc_sensor/hall.c:59

////////////////////////////////////////////////////////////////////////////////////////

ISR( HALL_B_vect )
{
 34e:	1f 92       	push	r1
 350:	0f 92       	push	r0
 352:	0f b6       	in	r0, 0x3f	; 63
 354:	0f 92       	push	r0
 356:	11 24       	eor	r1, r1
 358:	2f 93       	push	r18
 35a:	3f 93       	push	r19
 35c:	4f 93       	push	r20
 35e:	5f 93       	push	r21
 360:	6f 93       	push	r22
 362:	7f 93       	push	r23
 364:	8f 93       	push	r24
 366:	9f 93       	push	r25
 368:	af 93       	push	r26
 36a:	bf 93       	push	r27
 36c:	ef 93       	push	r30
 36e:	ff 93       	push	r31
C:/Users/Timothy/Documents/git/coastrunner_cr1_firmware_32M1/src/bldc_sensor/hall.c:60
  psc_commutateOutputWaveforms( pid_dutyCycle_get() );
 370:	0e 94 ce 02 	call	0x59c	; 0x59c <pid_dutyCycle_get>
 374:	0e 94 25 05 	call	0xa4a	; 0xa4a <psc_commutateOutputWaveforms>
C:/Users/Timothy/Documents/git/coastrunner_cr1_firmware_32M1/src/bldc_sensor/hall.c:68
  #endif
  uint8_t hallB_state = 0;
  static uint8_t hallB_state_previous = 0;

  //determine hallB state (high or low)
  if (PINC & (1<<PINC1) ) { hallB_state = HALL_B_HIGH; }
 378:	31 9b       	sbis	0x06, 1	; 6
 37a:	08 c0       	rjmp	.+16     	; 0x38c <__vector_23+0x3e>
C:/Users/Timothy/Documents/git/coastrunner_cr1_firmware_32M1/src/bldc_sensor/hall.c:73
  else                    { hallB_state = HALL_B_LOW;  }

  if(hallB_state == HALL_B_HIGH)
  {
    if(hallB_state_previous == HALL_B_LOW) 
 37c:	80 91 2c 01 	lds	r24, 0x012C	; 0x80012c <hallB_state_previous.1992>
 380:	81 11       	cpse	r24, r1
 382:	02 c0       	rjmp	.+4      	; 0x388 <__vector_23+0x3a>
C:/Users/Timothy/Documents/git/coastrunner_cr1_firmware_32M1/src/bldc_sensor/hall.c:76
    {
      //rising edge just occurred on Hall B
      int16_t timerCount = (int16_t)timing_calculateRPM();
 384:	0e 94 67 05 	call	0xace	; 0xace <timing_calculateRPM>
C:/Users/Timothy/Documents/git/coastrunner_cr1_firmware_32M1/src/bldc_sensor/hall.c:68
  #endif
  uint8_t hallB_state = 0;
  static uint8_t hallB_state_previous = 0;

  //determine hallB state (high or low)
  if (PINC & (1<<PINC1) ) { hallB_state = HALL_B_HIGH; }
 388:	81 e0       	ldi	r24, 0x01	; 1
 38a:	01 c0       	rjmp	.+2      	; 0x38e <__vector_23+0x40>
C:/Users/Timothy/Documents/git/coastrunner_cr1_firmware_32M1/src/bldc_sensor/hall.c:69
  else                    { hallB_state = HALL_B_LOW;  }
 38c:	80 e0       	ldi	r24, 0x00	; 0
C:/Users/Timothy/Documents/git/coastrunner_cr1_firmware_32M1/src/bldc_sensor/hall.c:94
	  #endif
		
    }
  }

  hallB_state_previous = hallB_state;
 38e:	80 93 2c 01 	sts	0x012C, r24	; 0x80012c <hallB_state_previous.1992>
C:/Users/Timothy/Documents/git/coastrunner_cr1_firmware_32M1/src/bldc_sensor/hall.c:95
}
 392:	ff 91       	pop	r31
 394:	ef 91       	pop	r30
 396:	bf 91       	pop	r27
 398:	af 91       	pop	r26
 39a:	9f 91       	pop	r25
 39c:	8f 91       	pop	r24
 39e:	7f 91       	pop	r23
 3a0:	6f 91       	pop	r22
 3a2:	5f 91       	pop	r21
 3a4:	4f 91       	pop	r20
 3a6:	3f 91       	pop	r19
 3a8:	2f 91       	pop	r18
 3aa:	0f 90       	pop	r0
 3ac:	0f be       	out	0x3f, r0	; 63
 3ae:	0f 90       	pop	r0
 3b0:	1f 90       	pop	r1
 3b2:	18 95       	reti

000003b4 <interface_init>:
interface_init():
C:/Users/Timothy/Documents/git/coastrunner_cr1_firmware_32M1/src/bldc_sensor/interface.c:16
/////////////////////////////////////////////////////////////////////////////////////////////////////////

void interface_init(void)
{
  // Use PCINT3 to detect change on PB3 (direction pin)
  PCMSK0 = (1<<PCINT3);
 3b4:	88 e0       	ldi	r24, 0x08	; 8
 3b6:	80 93 6a 00 	sts	0x006A, r24	; 0x80006a <__TEXT_REGION_LENGTH__+0x7f806a>
C:/Users/Timothy/Documents/git/coastrunner_cr1_firmware_32M1/src/bldc_sensor/interface.c:19
  
  // Enable pin change interrupts on PCMSK0
  PCICR |= (1<<PCIE0);
 3ba:	e8 e6       	ldi	r30, 0x68	; 104
 3bc:	f0 e0       	ldi	r31, 0x00	; 0
 3be:	80 81       	ld	r24, Z
 3c0:	81 60       	ori	r24, 0x01	; 1
 3c2:	80 83       	st	Z, r24
C:/Users/Timothy/Documents/git/coastrunner_cr1_firmware_32M1/src/bldc_sensor/interface.c:20
}
 3c4:	08 95       	ret

000003c6 <__vector_22>:
__vector_22():
C:/Users/Timothy/Documents/git/coastrunner_cr1_firmware_32M1/src/bldc_sensor/interface.c:25

/////////////////////////////////////////////////////////////////////////////////////////////////////////

ISR( DIRECTION_PIN_CHANGE_vect )
{
 3c6:	1f 92       	push	r1
 3c8:	0f 92       	push	r0
 3ca:	0f b6       	in	r0, 0x3f	; 63
 3cc:	0f 92       	push	r0
 3ce:	11 24       	eor	r1, r1
 3d0:	8f 93       	push	r24
C:/Users/Timothy/Documents/git/coastrunner_cr1_firmware_32M1/src/bldc_sensor/interface.c:26
  goalRPM_status = GOALRPM_LPF_CHANGING;
 3d2:	82 e0       	ldi	r24, 0x02	; 2
 3d4:	80 93 02 01 	sts	0x0102, r24	; 0x800102 <goalRPM_status>
C:/Users/Timothy/Documents/git/coastrunner_cr1_firmware_32M1/src/bldc_sensor/interface.c:27
}
 3d8:	8f 91       	pop	r24
 3da:	0f 90       	pop	r0
 3dc:	0f be       	out	0x3f, r0	; 63
 3de:	0f 90       	pop	r0
 3e0:	1f 90       	pop	r1
 3e2:	18 95       	reti

000003e4 <interface_checkForDirectionChange>:
interface_checkForDirectionChange():
C:/Users/Timothy/Documents/git/coastrunner_cr1_firmware_32M1/src/bldc_sensor/interface.c:33

/////////////////////////////////////////////////////////////////////////////////////////////////////////

//see if the direction pin has changed
void interface_checkForDirectionChange(void)
{
 3e4:	cf 93       	push	r28
C:/Users/Timothy/Documents/git/coastrunner_cr1_firmware_32M1/src/bldc_sensor/interface.c:35
	static uint8_t grblDirection_previous = 2;
	uint8_t grblDirection_now = ((PINB & (1<<PINB3)) >> (PINB3)); //0: CW (M3) //1: CCW (M4)
 3e6:	c3 b1       	in	r28, 0x03	; 3
 3e8:	c3 fb       	bst	r28, 3
 3ea:	cc 27       	eor	r28, r28
 3ec:	c0 f9       	bld	r28, 0
C:/Users/Timothy/Documents/git/coastrunner_cr1_firmware_32M1/src/bldc_sensor/interface.c:37

	if(grblDirection_now != grblDirection_previous)
 3ee:	80 91 01 01 	lds	r24, 0x0101	; 0x800101 <grblDirection_previous.1987>
 3f2:	8c 13       	cpse	r24, r28
 3f4:	04 c0       	rjmp	.+8      	; 0x3fe <interface_checkForDirectionChange+0x1a>
C:/Users/Timothy/Documents/git/coastrunner_cr1_firmware_32M1/src/bldc_sensor/interface.c:51
		pid_dutyCycle_set(0);
		//adc_goalRPM_set(0); //don't set this here... ADC isn't sampling goalRPM at this point, so goalRPM will remain 0 until next interrupt occurs (e.g. 'S3000')

		grblDirection_previous = grblDirection_now;
	}
} 
 3f6:	cf 91       	pop	r28
 3f8:	08 95       	ret
C:/Users/Timothy/Documents/git/coastrunner_cr1_firmware_32M1/src/bldc_sensor/interface.c:39 (discriminator 2)
	static uint8_t grblDirection_previous = 2;
	uint8_t grblDirection_now = ((PINB & (1<<PINB3)) >> (PINB3)); //0: CW (M3) //1: CCW (M4)

	if(grblDirection_now != grblDirection_previous)
	{
		while(timing_measuredRPM_get() > 500) { a4910_disable(); } //coast motor until it slows down enough to change direction
 3fa:	0e 94 5f 00 	call	0xbe	; 0xbe <a4910_disable>
C:/Users/Timothy/Documents/git/coastrunner_cr1_firmware_32M1/src/bldc_sensor/interface.c:39 (discriminator 1)
 3fe:	0e 94 80 05 	call	0xb00	; 0xb00 <timing_measuredRPM_get>
 402:	85 3f       	cpi	r24, 0xF5	; 245
 404:	91 40       	sbci	r25, 0x01	; 1
 406:	c8 f7       	brcc	.-14     	; 0x3fa <interface_checkForDirectionChange+0x16>
C:/Users/Timothy/Documents/git/coastrunner_cr1_firmware_32M1/src/bldc_sensor/interface.c:41

		a4910_enable(); //turn FETs back on
 408:	0e 94 61 00 	call	0xc2	; 0xc2 <a4910_enable>
C:/Users/Timothy/Documents/git/coastrunner_cr1_firmware_32M1/src/bldc_sensor/interface.c:43

		if(grblDirection_now == 0) { motor_direction_set(MOTOR_CW); }
 40c:	82 e0       	ldi	r24, 0x02	; 2
 40e:	c1 11       	cpse	r28, r1
C:/Users/Timothy/Documents/git/coastrunner_cr1_firmware_32M1/src/bldc_sensor/interface.c:44
		else                       { motor_direction_set(MOTOR_CCW); }
 410:	81 e0       	ldi	r24, 0x01	; 1
 412:	0e 94 c4 02 	call	0x588	; 0x588 <motor_direction_set>
C:/Users/Timothy/Documents/git/coastrunner_cr1_firmware_32M1/src/bldc_sensor/interface.c:46
			
		pid_dutyCycle_set(0);
 416:	80 e0       	ldi	r24, 0x00	; 0
 418:	0e 94 d1 02 	call	0x5a2	; 0x5a2 <pid_dutyCycle_set>
C:/Users/Timothy/Documents/git/coastrunner_cr1_firmware_32M1/src/bldc_sensor/interface.c:49
		//adc_goalRPM_set(0); //don't set this here... ADC isn't sampling goalRPM at this point, so goalRPM will remain 0 until next interrupt occurs (e.g. 'S3000')

		grblDirection_previous = grblDirection_now;
 41c:	c0 93 01 01 	sts	0x0101, r28	; 0x800101 <grblDirection_previous.1987>
C:/Users/Timothy/Documents/git/coastrunner_cr1_firmware_32M1/src/bldc_sensor/interface.c:51
	}
} 
 420:	ea cf       	rjmp	.-44     	; 0x3f6 <interface_checkForDirectionChange+0x12>

00000422 <interface_sendStatus_RPM>:
interface_sendStatus_RPM():
C:/Users/Timothy/Documents/git/coastrunner_cr1_firmware_32M1/src/bldc_sensor/interface.c:87
}

/////////////////////////////////////////////////////////////////////////////////////////////////////////

void interface_sendStatus_RPM(void)
{
 422:	0f 93       	push	r16
 424:	1f 93       	push	r17
 426:	cf 93       	push	r28
 428:	df 93       	push	r29
C:/Users/Timothy/Documents/git/coastrunner_cr1_firmware_32M1/src/bldc_sensor/interface.c:88
	int16_t RPM_actualMinusGoal = (int16_t)timing_measuredRPM_get() - (int16_t)adc_goalRPM_get();
 42a:	0e 94 80 05 	call	0xb00	; 0xb00 <timing_measuredRPM_get>
 42e:	ec 01       	movw	r28, r24
 430:	0e 94 3f 01 	call	0x27e	; 0x27e <adc_goalRPM_get>
 434:	8c 01       	movw	r16, r24
C:/Users/Timothy/Documents/git/coastrunner_cr1_firmware_32M1/src/bldc_sensor/interface.c:90

	if(motor_state_get() == RUNNING)
 436:	0e 94 a1 02 	call	0x542	; 0x542 <motor_state_get>
 43a:	81 30       	cpi	r24, 0x01	; 1
 43c:	19 f5       	brne	.+70     	; 0x484 <interface_sendStatus_RPM+0x62>
C:/Users/Timothy/Documents/git/coastrunner_cr1_firmware_32M1/src/bldc_sensor/interface.c:88

/////////////////////////////////////////////////////////////////////////////////////////////////////////

void interface_sendStatus_RPM(void)
{
	int16_t RPM_actualMinusGoal = (int16_t)timing_measuredRPM_get() - (int16_t)adc_goalRPM_get();
 43e:	c0 1b       	sub	r28, r16
 440:	d1 0b       	sbc	r29, r17
C:/Users/Timothy/Documents/git/coastrunner_cr1_firmware_32M1/src/bldc_sensor/interface.c:92

	if(motor_state_get() == RUNNING)
	{	
		if     (RPM_actualMinusGoal > -0500) { unoPinA2_low() ; unoPinA4_low() ; } //actualRPM between 0000 & 0500 RPM slower than setpoint (or is faster than setpoint) 
 442:	c1 3c       	cpi	r28, 0xC1	; 193
 444:	8e ef       	ldi	r24, 0xFE	; 254
 446:	d8 07       	cpc	r29, r24
 448:	44 f0       	brlt	.+16     	; 0x45a <interface_sendStatus_RPM+0x38>
C:/Users/Timothy/Documents/git/coastrunner_cr1_firmware_32M1/src/bldc_sensor/interface.c:92 (discriminator 1)
 44a:	0e 94 54 01 	call	0x2a8	; 0x2a8 <unoPinA2_low>
C:/Users/Timothy/Documents/git/coastrunner_cr1_firmware_32M1/src/bldc_sensor/interface.c:102
	else //motor STOPPED
	{
		unoPinA2_input(); //shared with X1 limit switch (X1 only used during X table level)
		unoPinA4_low();
	}
 44e:	df 91       	pop	r29
 450:	cf 91       	pop	r28
 452:	1f 91       	pop	r17
 454:	0f 91       	pop	r16
C:/Users/Timothy/Documents/git/coastrunner_cr1_firmware_32M1/src/bldc_sensor/interface.c:100
		else                                 { unoPinA2_high(); unoPinA4_high(); } //actualRPM beyond  1500        RPM slower than setpoint	
	}
	else //motor STOPPED
	{
		unoPinA2_input(); //shared with X1 limit switch (X1 only used during X table level)
		unoPinA4_low();
 456:	0c 94 51 01 	jmp	0x2a2	; 0x2a2 <unoPinA4_low>
C:/Users/Timothy/Documents/git/coastrunner_cr1_firmware_32M1/src/bldc_sensor/interface.c:93
	int16_t RPM_actualMinusGoal = (int16_t)timing_measuredRPM_get() - (int16_t)adc_goalRPM_get();

	if(motor_state_get() == RUNNING)
	{	
		if     (RPM_actualMinusGoal > -0500) { unoPinA2_low() ; unoPinA4_low() ; } //actualRPM between 0000 & 0500 RPM slower than setpoint (or is faster than setpoint) 
		else if(RPM_actualMinusGoal > -1000) { unoPinA2_low() ; unoPinA4_high(); } //actualRPM between 0501 & 1000 RPM slower than setpoint
 45a:	c9 31       	cpi	r28, 0x19	; 25
 45c:	8c ef       	ldi	r24, 0xFC	; 252
 45e:	d8 07       	cpc	r29, r24
 460:	44 f0       	brlt	.+16     	; 0x472 <interface_sendStatus_RPM+0x50>
C:/Users/Timothy/Documents/git/coastrunner_cr1_firmware_32M1/src/bldc_sensor/interface.c:93 (discriminator 1)
 462:	0e 94 54 01 	call	0x2a8	; 0x2a8 <unoPinA2_low>
C:/Users/Timothy/Documents/git/coastrunner_cr1_firmware_32M1/src/bldc_sensor/interface.c:102
	else //motor STOPPED
	{
		unoPinA2_input(); //shared with X1 limit switch (X1 only used during X table level)
		unoPinA4_low();
	}
 466:	df 91       	pop	r29
 468:	cf 91       	pop	r28
 46a:	1f 91       	pop	r17
 46c:	0f 91       	pop	r16
C:/Users/Timothy/Documents/git/coastrunner_cr1_firmware_32M1/src/bldc_sensor/interface.c:95
	if(motor_state_get() == RUNNING)
	{	
		if     (RPM_actualMinusGoal > -0500) { unoPinA2_low() ; unoPinA4_low() ; } //actualRPM between 0000 & 0500 RPM slower than setpoint (or is faster than setpoint) 
		else if(RPM_actualMinusGoal > -1000) { unoPinA2_low() ; unoPinA4_high(); } //actualRPM between 0501 & 1000 RPM slower than setpoint
		else if(RPM_actualMinusGoal > -1500) { unoPinA2_high(); unoPinA4_low() ; } //actualRPM between 1001 & 1500 RPM slower than setpoint
		else                                 { unoPinA2_high(); unoPinA4_high(); } //actualRPM beyond  1500        RPM slower than setpoint	
 46e:	0c 94 4b 01 	jmp	0x296	; 0x296 <unoPinA4_high>
C:/Users/Timothy/Documents/git/coastrunner_cr1_firmware_32M1/src/bldc_sensor/interface.c:94

	if(motor_state_get() == RUNNING)
	{	
		if     (RPM_actualMinusGoal > -0500) { unoPinA2_low() ; unoPinA4_low() ; } //actualRPM between 0000 & 0500 RPM slower than setpoint (or is faster than setpoint) 
		else if(RPM_actualMinusGoal > -1000) { unoPinA2_low() ; unoPinA4_high(); } //actualRPM between 0501 & 1000 RPM slower than setpoint
		else if(RPM_actualMinusGoal > -1500) { unoPinA2_high(); unoPinA4_low() ; } //actualRPM between 1001 & 1500 RPM slower than setpoint
 472:	c5 32       	cpi	r28, 0x25	; 37
 474:	da 4f       	sbci	r29, 0xFA	; 250
 476:	1c f0       	brlt	.+6      	; 0x47e <interface_sendStatus_RPM+0x5c>
C:/Users/Timothy/Documents/git/coastrunner_cr1_firmware_32M1/src/bldc_sensor/interface.c:94 (discriminator 1)
 478:	0e 94 4e 01 	call	0x29c	; 0x29c <unoPinA2_high>
 47c:	e8 cf       	rjmp	.-48     	; 0x44e <interface_sendStatus_RPM+0x2c>
C:/Users/Timothy/Documents/git/coastrunner_cr1_firmware_32M1/src/bldc_sensor/interface.c:95
		else                                 { unoPinA2_high(); unoPinA4_high(); } //actualRPM beyond  1500        RPM slower than setpoint	
 47e:	0e 94 4e 01 	call	0x29c	; 0x29c <unoPinA2_high>
 482:	f1 cf       	rjmp	.-30     	; 0x466 <interface_sendStatus_RPM+0x44>
C:/Users/Timothy/Documents/git/coastrunner_cr1_firmware_32M1/src/bldc_sensor/interface.c:99
	}
	else //motor STOPPED
	{
		unoPinA2_input(); //shared with X1 limit switch (X1 only used during X table level)
 484:	0e 94 49 01 	call	0x292	; 0x292 <unoPinA2_input>
 488:	e2 cf       	rjmp	.-60     	; 0x44e <interface_sendStatus_RPM+0x2c>

0000048a <interface_handler>:
interface_handler():
C:/Users/Timothy/Documents/git/coastrunner_cr1_firmware_32M1/src/bldc_sensor/interface.c:57

/////////////////////////////////////////////////////////////////////////////////////////////////////////

void interface_handler(void)
{
	if (goalRPM_status == GOALRPM_LPF_CHANGING) //set inside interrupt when grbl direction pin toggles
 48a:	80 91 02 01 	lds	r24, 0x0102	; 0x800102 <goalRPM_status>
 48e:	82 30       	cpi	r24, 0x02	; 2
 490:	c9 f4       	brne	.+50     	; 0x4c4 <interface_handler+0x3a>
C:/Users/Timothy/Documents/git/coastrunner_cr1_firmware_32M1/src/bldc_sensor/interface.c:59
	{
		adc_scheduler(ADC_MEASURING_GOAL_RPM);
 492:	81 e0       	ldi	r24, 0x01	; 1
 494:	0e 94 0b 01 	call	0x216	; 0x216 <adc_scheduler>
C:/Users/Timothy/Documents/git/coastrunner_cr1_firmware_32M1/src/bldc_sensor/interface.c:61
		
		motor_stop();  //prevent motion while requested speed is changing
 498:	0e 94 a4 02 	call	0x548	; 0x548 <motor_stop>
C:/Users/Timothy/Documents/git/coastrunner_cr1_firmware_32M1/src/bldc_sensor/interface.c:68
		#define GOALRPM_LPF_SETTLING_TIME_us 40000 //lowpass filter settles in 30 ms... wait at least this long
		#define NUM_ITERATIONS_FOR_LPF_TO_SETTLE (GOALRPM_LPF_SETTLING_TIME_us / CONTROL_LOOP_PERIOD_us) //division handled by pre-processor

		static uint16_t iterationCount = 0;

		if(++iterationCount > NUM_ITERATIONS_FOR_LPF_TO_SETTLE)
 49c:	80 91 2f 01 	lds	r24, 0x012F	; 0x80012f <iterationCount.1995>
 4a0:	90 91 30 01 	lds	r25, 0x0130	; 0x800130 <iterationCount.1995+0x1>
 4a4:	01 96       	adiw	r24, 0x01	; 1
 4a6:	90 93 30 01 	sts	0x0130, r25	; 0x800130 <iterationCount.1995+0x1>
 4aa:	80 93 2f 01 	sts	0x012F, r24	; 0x80012f <iterationCount.1995>
 4ae:	83 3e       	cpi	r24, 0xE3	; 227
 4b0:	94 40       	sbci	r25, 0x04	; 4
 4b2:	b8 f0       	brcs	.+46     	; 0x4e2 <interface_handler+0x58>
C:/Users/Timothy/Documents/git/coastrunner_cr1_firmware_32M1/src/bldc_sensor/interface.c:70
		{
			goalRPM_status = GOALRPM_LPF_SETTLED;
 4b4:	81 e0       	ldi	r24, 0x01	; 1
 4b6:	80 93 02 01 	sts	0x0102, r24	; 0x800102 <goalRPM_status>
C:/Users/Timothy/Documents/git/coastrunner_cr1_firmware_32M1/src/bldc_sensor/interface.c:71
			iterationCount = 0;
 4ba:	10 92 30 01 	sts	0x0130, r1	; 0x800130 <iterationCount.1995+0x1>
 4be:	10 92 2f 01 	sts	0x012F, r1	; 0x80012f <iterationCount.1995>
 4c2:	08 95       	ret
C:/Users/Timothy/Documents/git/coastrunner_cr1_firmware_32M1/src/bldc_sensor/interface.c:76
		}
	}
	else //goalRPM_status == GOALRPM_LPF_SETTLED
	{
		interface_checkForDirectionChange(); //We don't want to do this when grbl is toggling direction pin (to generate interrupt)
 4c4:	0e 94 f2 01 	call	0x3e4	; 0x3e4 <interface_checkForDirectionChange>
C:/Users/Timothy/Documents/git/coastrunner_cr1_firmware_32M1/src/bldc_sensor/interface.c:78
	
		if( (motor_state_get() == STOPPED) && (adc_goalRPM_get() > MIN_ALLOWED_RPM) ) { motor_run(); }
 4c8:	0e 94 a1 02 	call	0x542	; 0x542 <motor_state_get>
 4cc:	81 11       	cpse	r24, r1
 4ce:	07 c0       	rjmp	.+14     	; 0x4de <interface_handler+0x54>
C:/Users/Timothy/Documents/git/coastrunner_cr1_firmware_32M1/src/bldc_sensor/interface.c:78 (discriminator 1)
 4d0:	0e 94 3f 01 	call	0x27e	; 0x27e <adc_goalRPM_get>
 4d4:	8d 3d       	cpi	r24, 0xDD	; 221
 4d6:	95 40       	sbci	r25, 0x05	; 5
 4d8:	10 f0       	brcs	.+4      	; 0x4de <interface_handler+0x54>
C:/Users/Timothy/Documents/git/coastrunner_cr1_firmware_32M1/src/bldc_sensor/interface.c:78 (discriminator 2)
 4da:	0e 94 b6 02 	call	0x56c	; 0x56c <motor_run>
C:/Users/Timothy/Documents/git/coastrunner_cr1_firmware_32M1/src/bldc_sensor/interface.c:80
			
		interface_sendStatus_RPM();
 4de:	0c 94 11 02 	jmp	0x422	; 0x422 <interface_sendStatus_RPM>
C:/Users/Timothy/Documents/git/coastrunner_cr1_firmware_32M1/src/bldc_sensor/interface.c:82
	}
}
 4e2:	08 95       	ret

000004e4 <main>:
main():
C:/Users/Timothy/Documents/git/coastrunner_cr1_firmware_32M1/src/bldc_sensor/main.c:11
	.extended = 0xFF
};

int main(void)
{
  psc_init();
 4e4:	0e 94 c0 03 	call	0x780	; 0x780 <psc_init>
C:/Users/Timothy/Documents/git/coastrunner_cr1_firmware_32M1/src/bldc_sensor/main.c:12
  adc_init();
 4e8:	0e 94 d4 00 	call	0x1a8	; 0x1a8 <adc_init>
C:/Users/Timothy/Documents/git/coastrunner_cr1_firmware_32M1/src/bldc_sensor/main.c:13
  motor_init();
 4ec:	0e 94 ac 02 	call	0x558	; 0x558 <motor_init>
C:/Users/Timothy/Documents/git/coastrunner_cr1_firmware_32M1/src/bldc_sensor/main.c:14
  hall_init();
 4f0:	0e 94 57 01 	call	0x2ae	; 0x2ae <hall_init>
C:/Users/Timothy/Documents/git/coastrunner_cr1_firmware_32M1/src/bldc_sensor/main.c:15
  a4910_init(); //configure pin to digital output
 4f4:	0e 94 5d 00 	call	0xba	; 0xba <a4910_init>
C:/Users/Timothy/Documents/git/coastrunner_cr1_firmware_32M1/src/bldc_sensor/main.c:16
  timing_timer0_init();
 4f8:	0e 94 34 05 	call	0xa68	; 0xa68 <timing_timer0_init>
C:/Users/Timothy/Documents/git/coastrunner_cr1_firmware_32M1/src/bldc_sensor/main.c:17
  timing_timer1_init();
 4fc:	0e 94 4c 05 	call	0xa98	; 0xa98 <timing_timer1_init>
C:/Users/Timothy/Documents/git/coastrunner_cr1_firmware_32M1/src/bldc_sensor/main.c:18
  interface_init();
 500:	0e 94 da 01 	call	0x3b4	; 0x3b4 <interface_init>
C:/Users/Timothy/Documents/git/coastrunner_cr1_firmware_32M1/src/bldc_sensor/main.c:20

  Start_pll_64_mega(); // Start the 64 MHz PLL
 504:	86 e0       	ldi	r24, 0x06	; 6
 506:	89 bd       	out	0x29, r24	; 41
C:/Users/Timothy/Documents/git/coastrunner_cr1_firmware_32M1/src/bldc_sensor/main.c:21 (discriminator 1)
  Wait_pll_ready();
 508:	09 b4       	in	r0, 0x29	; 41
 50a:	00 fe       	sbrs	r0, 0
 50c:	fd cf       	rjmp	.-6      	; 0x508 <main+0x24>
C:/Users/Timothy/Documents/git/coastrunner_cr1_firmware_32M1/src/bldc_sensor/main.c:23
  
  a4910_enable(); //enable MOSFET driver
 50e:	0e 94 61 00 	call	0xc2	; 0xc2 <a4910_enable>
C:/Users/Timothy/Documents/git/coastrunner_cr1_firmware_32M1/src/bldc_sensor/main.c:25

  sei(); //enable interrupts
 512:	78 94       	sei
C:/Users/Timothy/Documents/git/coastrunner_cr1_firmware_32M1/src/bldc_sensor/main.c:29

  while(1)
  {	  	  
    if (timing_runControlLoop_get() == TRUE) //controlled by Timer0 interrupt
 514:	0e 94 2e 05 	call	0xa5c	; 0xa5c <timing_runControlLoop_get>
 518:	81 30       	cpi	r24, 0x01	; 1
 51a:	39 f4       	brne	.+14     	; 0x52a <main+0x46>
C:/Users/Timothy/Documents/git/coastrunner_cr1_firmware_32M1/src/bldc_sensor/main.c:31
      {	
        timing_runControlLoop_set(FALSE); //prevent control loop from running again until next Timer0 interrupt occurs
 51c:	80 e0       	ldi	r24, 0x00	; 0
 51e:	0e 94 31 05 	call	0xa62	; 0xa62 <timing_runControlLoop_set>
C:/Users/Timothy/Documents/git/coastrunner_cr1_firmware_32M1/src/bldc_sensor/main.c:32
        interface_handler(); // Look at inputs
 522:	0e 94 45 02 	call	0x48a	; 0x48a <interface_handler>
C:/Users/Timothy/Documents/git/coastrunner_cr1_firmware_32M1/src/bldc_sensor/main.c:33
        pid_scheduler(); // Adjust PWM duty cycle
 526:	0e 94 ab 03 	call	0x756	; 0x756 <pid_scheduler>
C:/Users/Timothy/Documents/git/coastrunner_cr1_firmware_32M1/src/bldc_sensor/main.c:37
        // Phase switching is determined directly from Hall Effect state with targets set by interface_handler()
      }
	
    if((timing_measuredRPM_get() < MIN_ALLOWED_RPM) && (motor_state_get() == RUNNING) ) //motor isn't spinning, but should be
 52a:	0e 94 80 05 	call	0xb00	; 0xb00 <timing_measuredRPM_get>
 52e:	8c 3d       	cpi	r24, 0xDC	; 220
 530:	95 40       	sbci	r25, 0x05	; 5
 532:	80 f7       	brcc	.-32     	; 0x514 <main+0x30>
C:/Users/Timothy/Documents/git/coastrunner_cr1_firmware_32M1/src/bldc_sensor/main.c:37 (discriminator 1)
 534:	0e 94 a1 02 	call	0x542	; 0x542 <motor_state_get>
 538:	81 30       	cpi	r24, 0x01	; 1
 53a:	61 f7       	brne	.-40     	; 0x514 <main+0x30>
C:/Users/Timothy/Documents/git/coastrunner_cr1_firmware_32M1/src/bldc_sensor/main.c:40
      {	
        //psc_commutateOutputWaveforms(PID_KICKSTART_DUTY);
        motor_kickstart(); //kickstart motor
 53c:	0e 94 bb 02 	call	0x576	; 0x576 <motor_kickstart>
 540:	e9 cf       	rjmp	.-46     	; 0x514 <main+0x30>

00000542 <motor_state_get>:
motor_state_get():
C:/Users/Timothy/Documents/git/coastrunner_cr1_firmware_32M1/src/bldc_sensor/motor.c:10
volatile uint8_t motorStatus = STOPPED;
uint8_t motorDirection = MOTOR_CW;

////////////////////////////////////////////////////////////////////////////////////////

uint8_t motor_state_get(void) { return motorStatus; }
 542:	80 91 31 01 	lds	r24, 0x0131	; 0x800131 <motorStatus>
 546:	08 95       	ret

00000548 <motor_stop>:
motor_stop():
C:/Users/Timothy/Documents/git/coastrunner_cr1_firmware_32M1/src/bldc_sensor/motor.c:25

////////////////////////////////////////////////////////////////////////////////////////

void motor_stop(void)
{
  motorStatus = STOPPED;
 548:	10 92 31 01 	sts	0x0131, r1	; 0x800131 <motorStatus>
C:/Users/Timothy/Documents/git/coastrunner_cr1_firmware_32M1/src/bldc_sensor/motor.c:26
  adc_goalRPM_set(0);
 54c:	90 e0       	ldi	r25, 0x00	; 0
 54e:	80 e0       	ldi	r24, 0x00	; 0
 550:	0e 94 44 01 	call	0x288	; 0x288 <adc_goalRPM_set>
C:/Users/Timothy/Documents/git/coastrunner_cr1_firmware_32M1/src/bldc_sensor/motor.c:27
  a4910_disable();
 554:	0c 94 5f 00 	jmp	0xbe	; 0xbe <a4910_disable>

00000558 <motor_init>:
motor_init():
C:/Users/Timothy/Documents/git/coastrunner_cr1_firmware_32M1/src/bldc_sensor/motor.c:16

////////////////////////////////////////////////////////////////////////////////////////

void motor_init()
{
  motor_stop();
 558:	0e 94 a4 02 	call	0x548	; 0x548 <motor_stop>
C:/Users/Timothy/Documents/git/coastrunner_cr1_firmware_32M1/src/bldc_sensor/motor.c:17
  adc_goalRPM_set(0);
 55c:	90 e0       	ldi	r25, 0x00	; 0
 55e:	80 e0       	ldi	r24, 0x00	; 0
 560:	0e 94 44 01 	call	0x288	; 0x288 <adc_goalRPM_set>
C:/Users/Timothy/Documents/git/coastrunner_cr1_firmware_32M1/src/bldc_sensor/motor.c:18
  timing_measuredRPM_set(0);
 564:	90 e0       	ldi	r25, 0x00	; 0
 566:	80 e0       	ldi	r24, 0x00	; 0
 568:	0c 94 85 05 	jmp	0xb0a	; 0xb0a <timing_measuredRPM_set>

0000056c <motor_run>:
motor_run():
C:/Users/Timothy/Documents/git/coastrunner_cr1_firmware_32M1/src/bldc_sensor/motor.c:34

////////////////////////////////////////////////////////////////////////////////////////

void motor_run(void)
{
  motorStatus = RUNNING;
 56c:	81 e0       	ldi	r24, 0x01	; 1
 56e:	80 93 31 01 	sts	0x0131, r24	; 0x800131 <motorStatus>
C:/Users/Timothy/Documents/git/coastrunner_cr1_firmware_32M1/src/bldc_sensor/motor.c:35
  a4910_enable();
 572:	0c 94 61 00 	jmp	0xc2	; 0xc2 <a4910_enable>

00000576 <motor_kickstart>:
motor_kickstart():
C:/Users/Timothy/Documents/git/coastrunner_cr1_firmware_32M1/src/bldc_sensor/motor.c:42

////////////////////////////////////////////////////////////////////////////////////////

void motor_kickstart(void)
{  
  pid_dutyCycle_set(PID_KICKSTART_DUTY);
 576:	8f eb       	ldi	r24, 0xBF	; 191
 578:	0e 94 d1 02 	call	0x5a2	; 0x5a2 <pid_dutyCycle_set>
C:/Users/Timothy/Documents/git/coastrunner_cr1_firmware_32M1/src/bldc_sensor/motor.c:44

  uint8_t phaseTarget = hall_getPosition();
 57c:	0e 94 63 01 	call	0x2c6	; 0x2c6 <hall_getPosition>
C:/Users/Timothy/Documents/git/coastrunner_cr1_firmware_32M1/src/bldc_sensor/motor.c:45
  psc_phaseSelect(PID_KICKSTART_DUTY, phaseTarget);
 580:	68 2f       	mov	r22, r24
 582:	8f eb       	ldi	r24, 0xBF	; 191
 584:	0c 94 12 04 	jmp	0x824	; 0x824 <psc_phaseSelect>

00000588 <motor_direction_set>:
motor_direction_set():
C:/Users/Timothy/Documents/git/coastrunner_cr1_firmware_32M1/src/bldc_sensor/motor.c:50
}

////////////////////////////////////////////////////////////////////////////////////////

void    motor_direction_set(uint8_t direction) { (direction == MOTOR_CCW) ? (motorDirection = MOTOR_CCW) : (motorDirection = MOTOR_CW); }
 588:	81 30       	cpi	r24, 0x01	; 1
 58a:	19 f4       	brne	.+6      	; 0x592 <motor_direction_set+0xa>
C:/Users/Timothy/Documents/git/coastrunner_cr1_firmware_32M1/src/bldc_sensor/motor.c:50 (discriminator 2)
 58c:	80 93 03 01 	sts	0x0103, r24	; 0x800103 <motorDirection>
 590:	08 95       	ret
 592:	82 e0       	ldi	r24, 0x02	; 2
 594:	fb cf       	rjmp	.-10     	; 0x58c <motor_direction_set+0x4>

00000596 <motor_direction_get>:
motor_direction_get():
C:/Users/Timothy/Documents/git/coastrunner_cr1_firmware_32M1/src/bldc_sensor/motor.c:51
 596:	80 91 03 01 	lds	r24, 0x0103	; 0x800103 <motorDirection>
 59a:	08 95       	ret

0000059c <pid_dutyCycle_get>:
pid_dutyCycle_get():
C:/Users/Timothy/Documents/git/coastrunner_cr1_firmware_32M1/src/bldc_sensor/pid.c:12
int32_t errorAcc=0; // Accumulated error
int32_t errorAccMax = 4177920/PID_COEFF_I;
uint8_t dutyPID = 0; //Closed loop PSC PWM Duty Cycle //0:255

// Getter/setter for PID
uint8_t pid_dutyCycle_get() { return dutyPID; }
 59c:	80 91 38 01 	lds	r24, 0x0138	; 0x800138 <dutyPID>
 5a0:	08 95       	ret

000005a2 <pid_dutyCycle_set>:
pid_dutyCycle_set():
C:/Users/Timothy/Documents/git/coastrunner_cr1_firmware_32M1/src/bldc_sensor/pid.c:13
void pid_dutyCycle_set(uint8_t newDuty) { dutyPID = newDuty; }
 5a2:	80 93 38 01 	sts	0x0138, r24	; 0x800138 <dutyPID>
 5a6:	08 95       	ret

000005a8 <pid_update>:
pid_update():
C:/Users/Timothy/Documents/git/coastrunner_cr1_firmware_32M1/src/bldc_sensor/pid.c:17

// Actual PID algorithm
uint8_t pid_update(int16_t error,int16_t dt)
{
 5a8:	0f 93       	push	r16
 5aa:	1f 93       	push	r17
C:/Users/Timothy/Documents/git/coastrunner_cr1_firmware_32M1/src/bldc_sensor/pid.c:22
	static int32_t pidFrac = 0; // Result in fractional form
	int32_t pidInt; // Result integer part
	
  	// Accumulate error to compute I
	errorAcc+=error*dt;
 5ac:	86 9f       	mul	r24, r22
 5ae:	80 01       	movw	r16, r0
 5b0:	87 9f       	mul	r24, r23
 5b2:	10 0d       	add	r17, r0
 5b4:	96 9f       	mul	r25, r22
 5b6:	10 0d       	add	r17, r0
 5b8:	11 24       	eor	r1, r1
 5ba:	01 2e       	mov	r0, r17
 5bc:	00 0c       	add	r0, r0
 5be:	22 0b       	sbc	r18, r18
 5c0:	33 0b       	sbc	r19, r19
 5c2:	40 91 39 01 	lds	r20, 0x0139	; 0x800139 <errorAcc>
 5c6:	50 91 3a 01 	lds	r21, 0x013A	; 0x80013a <errorAcc+0x1>
 5ca:	60 91 3b 01 	lds	r22, 0x013B	; 0x80013b <errorAcc+0x2>
 5ce:	70 91 3c 01 	lds	r23, 0x013C	; 0x80013c <errorAcc+0x3>
 5d2:	04 0f       	add	r16, r20
 5d4:	15 1f       	adc	r17, r21
 5d6:	26 1f       	adc	r18, r22
 5d8:	37 1f       	adc	r19, r23
 5da:	00 93 39 01 	sts	0x0139, r16	; 0x800139 <errorAcc>
 5de:	10 93 3a 01 	sts	0x013A, r17	; 0x80013a <errorAcc+0x1>
 5e2:	20 93 3b 01 	sts	0x013B, r18	; 0x80013b <errorAcc+0x2>
 5e6:	30 93 3c 01 	sts	0x013C, r19	; 0x80013c <errorAcc+0x3>
C:/Users/Timothy/Documents/git/coastrunner_cr1_firmware_32M1/src/bldc_sensor/pid.c:24
	
	if(errorAcc>errorAccMax)
 5ea:	40 91 04 01 	lds	r20, 0x0104	; 0x800104 <errorAccMax>
 5ee:	50 91 05 01 	lds	r21, 0x0105	; 0x800105 <errorAccMax+0x1>
 5f2:	60 91 06 01 	lds	r22, 0x0106	; 0x800106 <errorAccMax+0x2>
 5f6:	70 91 07 01 	lds	r23, 0x0107	; 0x800107 <errorAccMax+0x3>
 5fa:	40 17       	cp	r20, r16
 5fc:	51 07       	cpc	r21, r17
 5fe:	62 07       	cpc	r22, r18
 600:	73 07       	cpc	r23, r19
 602:	44 f4       	brge	.+16     	; 0x614 <pid_update+0x6c>
C:/Users/Timothy/Documents/git/coastrunner_cr1_firmware_32M1/src/bldc_sensor/pid.c:25
		errorAcc = errorAccMax;
 604:	40 93 39 01 	sts	0x0139, r20	; 0x800139 <errorAcc>
 608:	50 93 3a 01 	sts	0x013A, r21	; 0x80013a <errorAcc+0x1>
 60c:	60 93 3b 01 	sts	0x013B, r22	; 0x80013b <errorAcc+0x2>
 610:	70 93 3c 01 	sts	0x013C, r23	; 0x80013c <errorAcc+0x3>
C:/Users/Timothy/Documents/git/coastrunner_cr1_firmware_32M1/src/bldc_sensor/pid.c:27
	
	if(errorAcc<-errorAccMax)
 614:	70 95       	com	r23
 616:	60 95       	com	r22
 618:	50 95       	com	r21
 61a:	41 95       	neg	r20
 61c:	5f 4f       	sbci	r21, 0xFF	; 255
 61e:	6f 4f       	sbci	r22, 0xFF	; 255
 620:	7f 4f       	sbci	r23, 0xFF	; 255
 622:	00 91 39 01 	lds	r16, 0x0139	; 0x800139 <errorAcc>
 626:	10 91 3a 01 	lds	r17, 0x013A	; 0x80013a <errorAcc+0x1>
 62a:	20 91 3b 01 	lds	r18, 0x013B	; 0x80013b <errorAcc+0x2>
 62e:	30 91 3c 01 	lds	r19, 0x013C	; 0x80013c <errorAcc+0x3>
 632:	04 17       	cp	r16, r20
 634:	15 07       	cpc	r17, r21
 636:	26 07       	cpc	r18, r22
 638:	37 07       	cpc	r19, r23
 63a:	44 f4       	brge	.+16     	; 0x64c <pid_update+0xa4>
C:/Users/Timothy/Documents/git/coastrunner_cr1_firmware_32M1/src/bldc_sensor/pid.c:28
		errorAcc = -errorAccMax;
 63c:	40 93 39 01 	sts	0x0139, r20	; 0x800139 <errorAcc>
 640:	50 93 3a 01 	sts	0x013A, r21	; 0x80013a <errorAcc+0x1>
 644:	60 93 3b 01 	sts	0x013B, r22	; 0x80013b <errorAcc+0x2>
 648:	70 93 3c 01 	sts	0x013C, r23	; 0x80013c <errorAcc+0x3>
C:/Users/Timothy/Documents/git/coastrunner_cr1_firmware_32M1/src/bldc_sensor/pid.c:31

	// Compute P, I and D parts
	int32_t pVal = PID_COEFF_P*error;
 64c:	23 e0       	ldi	r18, 0x03	; 3
 64e:	30 e0       	ldi	r19, 0x00	; 0
 650:	dc 01       	movw	r26, r24
 652:	0e 94 ac 05 	call	0xb58	; 0xb58 <__usmulhisi3>
C:/Users/Timothy/Documents/git/coastrunner_cr1_firmware_32M1/src/bldc_sensor/pid.c:38
	int32_t dVal = PID_COEFF_D*(error-errorPrevious)/dt;
	

	
	// Compute PID result in fractional form
	pidFrac = (pVal+iVal+dVal);
 656:	00 91 39 01 	lds	r16, 0x0139	; 0x800139 <errorAcc>
 65a:	10 91 3a 01 	lds	r17, 0x013A	; 0x80013a <errorAcc+0x1>
 65e:	20 91 3b 01 	lds	r18, 0x013B	; 0x80013b <errorAcc+0x2>
 662:	30 91 3c 01 	lds	r19, 0x013C	; 0x80013c <errorAcc+0x3>
 666:	06 0f       	add	r16, r22
 668:	17 1f       	adc	r17, r23
 66a:	28 1f       	adc	r18, r24
 66c:	39 1f       	adc	r19, r25
C:/Users/Timothy/Documents/git/coastrunner_cr1_firmware_32M1/src/bldc_sensor/pid.c:40
	
	if(pidFrac<0)
 66e:	37 fd       	sbrc	r19, 7
 670:	31 c0       	rjmp	.+98     	; 0x6d4 <pid_update+0x12c>
C:/Users/Timothy/Documents/git/coastrunner_cr1_firmware_32M1/src/bldc_sensor/pid.c:38
	int32_t dVal = PID_COEFF_D*(error-errorPrevious)/dt;
	

	
	// Compute PID result in fractional form
	pidFrac = (pVal+iVal+dVal);
 672:	00 93 34 01 	sts	0x0134, r16	; 0x800134 <pidFrac.1985>
 676:	10 93 35 01 	sts	0x0135, r17	; 0x800135 <pidFrac.1985+0x1>
 67a:	20 93 36 01 	sts	0x0136, r18	; 0x800136 <pidFrac.1985+0x2>
 67e:	30 93 37 01 	sts	0x0137, r19	; 0x800137 <pidFrac.1985+0x3>
C:/Users/Timothy/Documents/git/coastrunner_cr1_firmware_32M1/src/bldc_sensor/pid.c:44
	
	if(pidFrac<0)
		pidFrac = 0;

	// Compute integer part of PID
	pidInt = PID_MIN_VALUE+(pidFrac>>PID_COEF_SCALE_LOG2);
 682:	80 91 34 01 	lds	r24, 0x0134	; 0x800134 <pidFrac.1985>
 686:	90 91 35 01 	lds	r25, 0x0135	; 0x800135 <pidFrac.1985+0x1>
 68a:	a0 91 36 01 	lds	r26, 0x0136	; 0x800136 <pidFrac.1985+0x2>
 68e:	b0 91 37 01 	lds	r27, 0x0137	; 0x800137 <pidFrac.1985+0x3>
 692:	2e e0       	ldi	r18, 0x0E	; 14
 694:	b5 95       	asr	r27
 696:	a7 95       	ror	r26
 698:	97 95       	ror	r25
 69a:	87 95       	ror	r24
 69c:	2a 95       	dec	r18
 69e:	d1 f7       	brne	.-12     	; 0x694 <pid_update+0xec>
 6a0:	81 58       	subi	r24, 0x81	; 129
 6a2:	9f 4f       	sbci	r25, 0xFF	; 255
 6a4:	af 4f       	sbci	r26, 0xFF	; 255
 6a6:	bf 4f       	sbci	r27, 0xFF	; 255
 6a8:	8f 37       	cpi	r24, 0x7F	; 127
 6aa:	91 05       	cpc	r25, r1
 6ac:	a1 05       	cpc	r26, r1
 6ae:	b1 05       	cpc	r27, r1
 6b0:	24 f4       	brge	.+8      	; 0x6ba <pid_update+0x112>
 6b2:	8f e7       	ldi	r24, 0x7F	; 127
 6b4:	90 e0       	ldi	r25, 0x00	; 0
 6b6:	a0 e0       	ldi	r26, 0x00	; 0
 6b8:	b0 e0       	ldi	r27, 0x00	; 0
C:/Users/Timothy/Documents/git/coastrunner_cr1_firmware_32M1/src/bldc_sensor/pid.c:52
	if(pidInt > PID_MAX_VALUE)
	pidInt = PID_MAX_VALUE;
	if(pidInt < PID_MIN_VALUE)
	pidInt = PID_MIN_VALUE;
	
	return (uint8_t) pidInt;
 6ba:	8f 3f       	cpi	r24, 0xFF	; 255
 6bc:	91 05       	cpc	r25, r1
 6be:	a1 05       	cpc	r26, r1
 6c0:	b1 05       	cpc	r27, r1
 6c2:	29 f0       	breq	.+10     	; 0x6ce <pid_update+0x126>
 6c4:	24 f0       	brlt	.+8      	; 0x6ce <pid_update+0x126>
 6c6:	8f ef       	ldi	r24, 0xFF	; 255
 6c8:	90 e0       	ldi	r25, 0x00	; 0
 6ca:	a0 e0       	ldi	r26, 0x00	; 0
 6cc:	b0 e0       	ldi	r27, 0x00	; 0
C:/Users/Timothy/Documents/git/coastrunner_cr1_firmware_32M1/src/bldc_sensor/pid.c:53
}
 6ce:	1f 91       	pop	r17
 6d0:	0f 91       	pop	r16
 6d2:	08 95       	ret
C:/Users/Timothy/Documents/git/coastrunner_cr1_firmware_32M1/src/bldc_sensor/pid.c:41
	
	// Compute PID result in fractional form
	pidFrac = (pVal+iVal+dVal);
	
	if(pidFrac<0)
		pidFrac = 0;
 6d4:	10 92 34 01 	sts	0x0134, r1	; 0x800134 <pidFrac.1985>
 6d8:	10 92 35 01 	sts	0x0135, r1	; 0x800135 <pidFrac.1985+0x1>
 6dc:	10 92 36 01 	sts	0x0136, r1	; 0x800136 <pidFrac.1985+0x2>
 6e0:	10 92 37 01 	sts	0x0137, r1	; 0x800137 <pidFrac.1985+0x3>
 6e4:	ce cf       	rjmp	.-100    	; 0x682 <pid_update+0xda>

000006e6 <pid_reset>:
pid_reset():
C:/Users/Timothy/Documents/git/coastrunner_cr1_firmware_32M1/src/bldc_sensor/pid.c:58
}

// Reset PID static parameters
void pid_reset()
{
	errorPrevious=0;
 6e6:	10 92 3d 01 	sts	0x013D, r1	; 0x80013d <errorPrevious>
 6ea:	10 92 3e 01 	sts	0x013E, r1	; 0x80013e <errorPrevious+0x1>
 6ee:	10 92 3f 01 	sts	0x013F, r1	; 0x80013f <errorPrevious+0x2>
 6f2:	10 92 40 01 	sts	0x0140, r1	; 0x800140 <errorPrevious+0x3>
C:/Users/Timothy/Documents/git/coastrunner_cr1_firmware_32M1/src/bldc_sensor/pid.c:59
	errorAcc=0;
 6f6:	10 92 39 01 	sts	0x0139, r1	; 0x800139 <errorAcc>
 6fa:	10 92 3a 01 	sts	0x013A, r1	; 0x80013a <errorAcc+0x1>
 6fe:	10 92 3b 01 	sts	0x013B, r1	; 0x80013b <errorAcc+0x2>
 702:	10 92 3c 01 	sts	0x013C, r1	; 0x80013c <errorAcc+0x3>
C:/Users/Timothy/Documents/git/coastrunner_cr1_firmware_32M1/src/bldc_sensor/pid.c:60
}
 706:	08 95       	ret

00000708 <pid_loop>:
pid_loop():
C:/Users/Timothy/Documents/git/coastrunner_cr1_firmware_32M1/src/bldc_sensor/pid.c:63

void pid_loop(int16_t dt)
{
 708:	0f 93       	push	r16
 70a:	1f 93       	push	r17
 70c:	cf 93       	push	r28
 70e:	df 93       	push	r29
 710:	8c 01       	movw	r16, r24
C:/Users/Timothy/Documents/git/coastrunner_cr1_firmware_32M1/src/bldc_sensor/pid.c:65
    #ifdef SPINDLE_MODE_CLOSED_LOOP
    if(adc_goalRPM_get() > MIN_ALLOWED_RPM)
 712:	0e 94 3f 01 	call	0x27e	; 0x27e <adc_goalRPM_get>
 716:	8d 3d       	cpi	r24, 0xDD	; 221
 718:	95 40       	sbci	r25, 0x05	; 5
 71a:	98 f0       	brcs	.+38     	; 0x742 <pid_loop+0x3a>
C:/Users/Timothy/Documents/git/coastrunner_cr1_firmware_32M1/src/bldc_sensor/pid.c:67
    {
	    int16_t error = (int16_t)adc_goalRPM_get()-(int16_t)timing_measuredRPM_get();
 71c:	0e 94 3f 01 	call	0x27e	; 0x27e <adc_goalRPM_get>
 720:	ec 01       	movw	r28, r24
 722:	0e 94 80 05 	call	0xb00	; 0xb00 <timing_measuredRPM_get>
C:/Users/Timothy/Documents/git/coastrunner_cr1_firmware_32M1/src/bldc_sensor/pid.c:68
	    dutyPID = pid_update(error,dt);
 726:	b8 01       	movw	r22, r16
 728:	9e 01       	movw	r18, r28
 72a:	28 1b       	sub	r18, r24
 72c:	39 0b       	sbc	r19, r25
 72e:	c9 01       	movw	r24, r18
 730:	0e 94 d4 02 	call	0x5a8	; 0x5a8 <pid_update>
 734:	80 93 38 01 	sts	0x0138, r24	; 0x800138 <dutyPID>
C:/Users/Timothy/Documents/git/coastrunner_cr1_firmware_32M1/src/bldc_sensor/pid.c:79
	    motor_stop();
    }
    #elif defined SPINDLE_MODE_OPEN_LOOP
    dutyPID = OPEN_LOOP_STATIC_PSC_DUTY_CYCLE;
    #endif
}
 738:	df 91       	pop	r29
 73a:	cf 91       	pop	r28
 73c:	1f 91       	pop	r17
 73e:	0f 91       	pop	r16
 740:	08 95       	ret
C:/Users/Timothy/Documents/git/coastrunner_cr1_firmware_32M1/src/bldc_sensor/pid.c:72
	    int16_t error = (int16_t)adc_goalRPM_get()-(int16_t)timing_measuredRPM_get();
	    dutyPID = pid_update(error,dt);
    }
    else
    {
	    pid_reset();
 742:	0e 94 73 03 	call	0x6e6	; 0x6e6 <pid_reset>
C:/Users/Timothy/Documents/git/coastrunner_cr1_firmware_32M1/src/bldc_sensor/pid.c:73
	    dutyPID=0;
 746:	10 92 38 01 	sts	0x0138, r1	; 0x800138 <dutyPID>
C:/Users/Timothy/Documents/git/coastrunner_cr1_firmware_32M1/src/bldc_sensor/pid.c:79
	    motor_stop();
    }
    #elif defined SPINDLE_MODE_OPEN_LOOP
    dutyPID = OPEN_LOOP_STATIC_PSC_DUTY_CYCLE;
    #endif
}
 74a:	df 91       	pop	r29
 74c:	cf 91       	pop	r28
 74e:	1f 91       	pop	r17
 750:	0f 91       	pop	r16
C:/Users/Timothy/Documents/git/coastrunner_cr1_firmware_32M1/src/bldc_sensor/pid.c:74
    }
    else
    {
	    pid_reset();
	    dutyPID=0;
	    motor_stop();
 752:	0c 94 a4 02 	jmp	0x548	; 0x548 <motor_stop>

00000756 <pid_scheduler>:
pid_scheduler():
C:/Users/Timothy/Documents/git/coastrunner_cr1_firmware_32M1/src/bldc_sensor/pid.c:87
void pid_scheduler(void)
{
  static uint16_t timeSinceLastUpdate_PID = 0;
  

  if(++timeSinceLastUpdate_PID >= 100)
 756:	80 91 32 01 	lds	r24, 0x0132	; 0x800132 <timeSinceLastUpdate_PID.1999>
 75a:	90 91 33 01 	lds	r25, 0x0133	; 0x800133 <timeSinceLastUpdate_PID.1999+0x1>
 75e:	01 96       	adiw	r24, 0x01	; 1
 760:	90 93 33 01 	sts	0x0133, r25	; 0x800133 <timeSinceLastUpdate_PID.1999+0x1>
 764:	80 93 32 01 	sts	0x0132, r24	; 0x800132 <timeSinceLastUpdate_PID.1999>
 768:	84 36       	cpi	r24, 0x64	; 100
 76a:	91 05       	cpc	r25, r1
 76c:	40 f0       	brcs	.+16     	; 0x77e <pid_scheduler+0x28>
C:/Users/Timothy/Documents/git/coastrunner_cr1_firmware_32M1/src/bldc_sensor/pid.c:89
  {
    pid_loop(1);
 76e:	81 e0       	ldi	r24, 0x01	; 1
 770:	90 e0       	ldi	r25, 0x00	; 0
 772:	0e 94 84 03 	call	0x708	; 0x708 <pid_loop>
C:/Users/Timothy/Documents/git/coastrunner_cr1_firmware_32M1/src/bldc_sensor/pid.c:90
    timeSinceLastUpdate_PID = 0;
 776:	10 92 33 01 	sts	0x0133, r1	; 0x800133 <timeSinceLastUpdate_PID.1999+0x1>
 77a:	10 92 32 01 	sts	0x0132, r1	; 0x800132 <timeSinceLastUpdate_PID.1999>
C:/Users/Timothy/Documents/git/coastrunner_cr1_firmware_32M1/src/bldc_sensor/pid.c:92
  }
 77e:	08 95       	ret

00000780 <psc_init>:
psc_init():
C:/Users/Timothy/Documents/git/coastrunner_cr1_firmware_32M1/src/bldc_sensor/psc.c:15
  // PD0 => UH     PB7 => UL
  // PC0 => VH     PB6 => VL
  // PB0 => WH     PB1 => WL

  // Set MOSFET Drive pins low (soo all FETs are off when set to output in next step)
  PORTB &= ~(1<<PORTB7 | 1<<PORTB6 | 1<<PORTB1 | 1<<PORTB0);
 780:	85 b1       	in	r24, 0x05	; 5
 782:	8c 73       	andi	r24, 0x3C	; 60
 784:	85 b9       	out	0x05, r24	; 5
C:/Users/Timothy/Documents/git/coastrunner_cr1_firmware_32M1/src/bldc_sensor/psc.c:16
  PORTC &= ~(1<<PORTC0);
 786:	40 98       	cbi	0x08, 0	; 8
C:/Users/Timothy/Documents/git/coastrunner_cr1_firmware_32M1/src/bldc_sensor/psc.c:17
  PORTD &= ~(1<<PORTD0);
 788:	58 98       	cbi	0x0b, 0	; 11
C:/Users/Timothy/Documents/git/coastrunner_cr1_firmware_32M1/src/bldc_sensor/psc.c:20

  // Configure MOSFET pins to output
  DDRB |= (1<<DDB7)|(1<<DDB6)|(1<<DDB1)|(1<<DDB0);
 78a:	84 b1       	in	r24, 0x04	; 4
 78c:	83 6c       	ori	r24, 0xC3	; 195
 78e:	84 b9       	out	0x04, r24	; 4
C:/Users/Timothy/Documents/git/coastrunner_cr1_firmware_32M1/src/bldc_sensor/psc.c:21
  DDRC |= (1<<DDC0);
 790:	38 9a       	sbi	0x07, 0	; 7
C:/Users/Timothy/Documents/git/coastrunner_cr1_firmware_32M1/src/bldc_sensor/psc.c:22
  DDRD |= (1<<DDD0);
 792:	50 9a       	sbi	0x0a, 0	; 10
psc_connectAllMOSFETs():
C:/Users/Timothy/Documents/git/coastrunner_cr1_firmware_32M1/src/bldc_sensor/psc.c:179

//used if PSCs are controlling commutation
void psc_connectAllMOSFETs(void)
{
  //POC: PSC output configuration
  POC = ( (1<<POEN0A)|(1<<POEN0B) |  //0:disconnect PSC outputs 0A & 0B from I/O pins //1:connect PSC output
 794:	8f e3       	ldi	r24, 0x3F	; 63
 796:	80 93 b6 00 	sts	0x00B6, r24	; 0x8000b6 <__TEXT_REGION_LENGTH__+0x7f80b6>
psc_init():
C:/Users/Timothy/Documents/git/coastrunner_cr1_firmware_32M1/src/bldc_sensor/psc.c:31
   //SA_VAL: When PSC counter is less    than this value, high FET is enabled
   //SB_VAL: When PSC counter is greater than this value, low  FET is enabled
   //The difference between SA and SB sets the dead time between phases 
   //RA_VAL: Not used in centered mode //can be used to synchronize ADC
   //RB_VAL: Not used in centered mode 
   Psc_set_module_A(A_SA_VAL,A_RA_VAL,A_SB_VAL);
 79a:	10 92 a1 00 	sts	0x00A1, r1	; 0x8000a1 <__TEXT_REGION_LENGTH__+0x7f80a1>
 79e:	10 92 a0 00 	sts	0x00A0, r1	; 0x8000a0 <__TEXT_REGION_LENGTH__+0x7f80a0>
 7a2:	10 92 a3 00 	sts	0x00A3, r1	; 0x8000a3 <__TEXT_REGION_LENGTH__+0x7f80a3>
 7a6:	81 e0       	ldi	r24, 0x01	; 1
 7a8:	80 93 a2 00 	sts	0x00A2, r24	; 0x8000a2 <__TEXT_REGION_LENGTH__+0x7f80a2>
 7ac:	10 92 a5 00 	sts	0x00A5, r1	; 0x8000a5 <__TEXT_REGION_LENGTH__+0x7f80a5>
 7b0:	10 92 a4 00 	sts	0x00A4, r1	; 0x8000a4 <__TEXT_REGION_LENGTH__+0x7f80a4>
C:/Users/Timothy/Documents/git/coastrunner_cr1_firmware_32M1/src/bldc_sensor/psc.c:32
   Psc_set_module_B(B_SA_VAL,B_RA_VAL,B_SB_VAL);
 7b4:	10 92 a7 00 	sts	0x00A7, r1	; 0x8000a7 <__TEXT_REGION_LENGTH__+0x7f80a7>
 7b8:	10 92 a6 00 	sts	0x00A6, r1	; 0x8000a6 <__TEXT_REGION_LENGTH__+0x7f80a6>
 7bc:	10 92 a9 00 	sts	0x00A9, r1	; 0x8000a9 <__TEXT_REGION_LENGTH__+0x7f80a9>
 7c0:	80 93 a8 00 	sts	0x00A8, r24	; 0x8000a8 <__TEXT_REGION_LENGTH__+0x7f80a8>
 7c4:	10 92 ab 00 	sts	0x00AB, r1	; 0x8000ab <__TEXT_REGION_LENGTH__+0x7f80ab>
 7c8:	10 92 aa 00 	sts	0x00AA, r1	; 0x8000aa <__TEXT_REGION_LENGTH__+0x7f80aa>
C:/Users/Timothy/Documents/git/coastrunner_cr1_firmware_32M1/src/bldc_sensor/psc.c:33
   Psc_set_module_C(C_SA_VAL,C_RA_VAL,C_SB_VAL);
 7cc:	10 92 ad 00 	sts	0x00AD, r1	; 0x8000ad <__TEXT_REGION_LENGTH__+0x7f80ad>
 7d0:	10 92 ac 00 	sts	0x00AC, r1	; 0x8000ac <__TEXT_REGION_LENGTH__+0x7f80ac>
 7d4:	10 92 af 00 	sts	0x00AF, r1	; 0x8000af <__TEXT_REGION_LENGTH__+0x7f80af>
 7d8:	80 93 ae 00 	sts	0x00AE, r24	; 0x8000ae <__TEXT_REGION_LENGTH__+0x7f80ae>
 7dc:	10 92 b1 00 	sts	0x00B1, r1	; 0x8000b1 <__TEXT_REGION_LENGTH__+0x7f80b1>
 7e0:	10 92 b0 00 	sts	0x00B0, r1	; 0x8000b0 <__TEXT_REGION_LENGTH__+0x7f80b0>
C:/Users/Timothy/Documents/git/coastrunner_cr1_firmware_32M1/src/bldc_sensor/psc.c:34
   Psc_set_register_RB(RB_VAL); //max value 12b free-running PSC counter counts up to
 7e4:	10 92 b3 00 	sts	0x00B3, r1	; 0x8000b3 <__TEXT_REGION_LENGTH__+0x7f80b3>
 7e8:	9e ef       	ldi	r25, 0xFE	; 254
 7ea:	90 93 b2 00 	sts	0x00B2, r25	; 0x8000b2 <__TEXT_REGION_LENGTH__+0x7f80b2>
C:/Users/Timothy/Documents/git/coastrunner_cr1_firmware_32M1/src/bldc_sensor/psc.c:36

   Psc_config();
 7ee:	94 e1       	ldi	r25, 0x14	; 20
 7f0:	90 93 b5 00 	sts	0x00B5, r25	; 0x8000b5 <__TEXT_REGION_LENGTH__+0x7f80b5>
C:/Users/Timothy/Documents/git/coastrunner_cr1_firmware_32M1/src/bldc_sensor/psc.c:38

   Psc_config_input_0(PSC_OVERLAP_ENABLE,\
 7f4:	98 ed       	ldi	r25, 0xD8	; 216
 7f6:	90 93 b8 00 	sts	0x00B8, r25	; 0x8000b8 <__TEXT_REGION_LENGTH__+0x7f80b8>
C:/Users/Timothy/Documents/git/coastrunner_cr1_firmware_32M1/src/bldc_sensor/psc.c:45
                      PSC_USE_LOW_LEVEL,\
                      PSC_INPUT_FILTER_ENABLE,\
                      PSC_SYNCHRONOUS_OUTPUT_CONTROL,\
                      PSC_INPUT_NO_ACTION); //PSC input is ignored

   Psc_config_input_1(PSC_OVERLAP_ENABLE,\
 7fa:	28 ef       	ldi	r18, 0xF8	; 248
 7fc:	20 93 b9 00 	sts	0x00B9, r18	; 0x8000b9 <__TEXT_REGION_LENGTH__+0x7f80b9>
C:/Users/Timothy/Documents/git/coastrunner_cr1_firmware_32M1/src/bldc_sensor/psc.c:52
                      PSC_USE_HIGH_LEVEL,\
                      PSC_INPUT_FILTER_ENABLE,\
                      PSC_SYNCHRONOUS_OUTPUT_CONTROL,\
                      PSC_INPUT_NO_ACTION);

   Psc_config_input_2(PSC_OVERLAP_ENABLE,\
 800:	90 93 ba 00 	sts	0x00BA, r25	; 0x8000ba <__TEXT_REGION_LENGTH__+0x7f80ba>
C:/Users/Timothy/Documents/git/coastrunner_cr1_firmware_32M1/src/bldc_sensor/psc.c:59
                      PSC_USE_LOW_LEVEL,\
                      PSC_INPUT_FILTER_ENABLE,\
                      PSC_SYNCHRONOUS_OUTPUT_CONTROL,\
                      PSC_INPUT_NO_ACTION);

   PIFR = (1<<PEV2)|(1<<PEV1)|(1<<PEV0)|(1<<PEOP); //PSC interrupt flag register
 804:	9f e0       	ldi	r25, 0x0F	; 15
 806:	90 93 bc 00 	sts	0x00BC, r25	; 0x8000bc <__TEXT_REGION_LENGTH__+0x7f80bc>
C:/Users/Timothy/Documents/git/coastrunner_cr1_firmware_32M1/src/bldc_sensor/psc.c:61

   PIM = (0<<PEVE1)|(0<<PEVE1)|(0<<PEVE2)|(0<<PEOPE); //PSC interrupt mask register
 80a:	10 92 bb 00 	sts	0x00BB, r1	; 0x8000bb <__TEXT_REGION_LENGTH__+0x7f80bb>
C:/Users/Timothy/Documents/git/coastrunner_cr1_firmware_32M1/src/bldc_sensor/psc.c:67
                         //PEVE0 high: when fault occurs on PSC1, generate interrupt //low: no interrupt
                         //PEVE1 high: when fault occurs on PSC1, generate interrupt //low: no interrupt
                         //PEVE2 high: when fault occurs on PSC1, generate interrupt //low: no interrupt
                         //PEOPE high: PSC generates interrupt when end of cycle reached //low: no interrupt

   Psc_run();
 80e:	80 93 b7 00 	sts	0x00B7, r24	; 0x8000b7 <__TEXT_REGION_LENGTH__+0x7f80b7>
C:/Users/Timothy/Documents/git/coastrunner_cr1_firmware_32M1/src/bldc_sensor/psc.c:68
}
 812:	08 95       	ret

00000814 <psc_disconnectAllMOSFETs>:
psc_disconnectAllMOSFETs():
C:/Users/Timothy/Documents/git/coastrunner_cr1_firmware_32M1/src/bldc_sensor/psc.c:163
//////////////////////////////////////////////////////////////////////////////////////////////////

void psc_disconnectAllMOSFETs(void)
{
  //set standard pin outputs low
  PORTB &= ( ~((1<<PORTB7)|(1<<PORTB6)|(1<<PORTB0)|(1<<PORTB1)) ); //Turn off Q2/Q4/Q5/Q6, respectively
 814:	85 b1       	in	r24, 0x05	; 5
 816:	8c 73       	andi	r24, 0x3C	; 60
 818:	85 b9       	out	0x05, r24	; 5
C:/Users/Timothy/Documents/git/coastrunner_cr1_firmware_32M1/src/bldc_sensor/psc.c:164
  PORTC &= ( ~(1<<PORTC0) ); //turn off Q3
 81a:	40 98       	cbi	0x08, 0	; 8
C:/Users/Timothy/Documents/git/coastrunner_cr1_firmware_32M1/src/bldc_sensor/psc.c:165
  PORTD &= ( ~(1<<PORTD0) ); //turn off Q1
 81c:	58 98       	cbi	0x0b, 0	; 11
C:/Users/Timothy/Documents/git/coastrunner_cr1_firmware_32M1/src/bldc_sensor/psc.c:168

  //POC: PSC output configuration
  POC = ( (0<<POEN0A)|(0<<POEN0B) |  //0:disconnect PSC outputs 0A & 0B from I/O pins //1:connect PSC output
 81e:	10 92 b6 00 	sts	0x00B6, r1	; 0x8000b6 <__TEXT_REGION_LENGTH__+0x7f80b6>
C:/Users/Timothy/Documents/git/coastrunner_cr1_firmware_32M1/src/bldc_sensor/psc.c:171
          (0<<POEN1A)|(0<<POEN1B) |  //0:disconnect PSC outputs 1A & 1B from I/O pins //1:connect PSC output
          (0<<POEN2A)|(0<<POEN2B) ); //0:disconnect PSC outputs 2A & 2B from I/O pins //1:connect PSC output
}
 822:	08 95       	ret

00000824 <psc_phaseSelect>:
psc_phaseSelect():
C:/Users/Timothy/Documents/git/coastrunner_cr1_firmware_32M1/src/bldc_sensor/psc.c:85
}

//////////////////////////////////////////////////////////////////////////////////////////////////

void psc_phaseSelect(uint8_t duty, uint8_t phaseTarget)
{
 824:	cf 93       	push	r28
 826:	df 93       	push	r29
 828:	d8 2f       	mov	r29, r24
 82a:	c6 2f       	mov	r28, r22
C:/Users/Timothy/Documents/git/coastrunner_cr1_firmware_32M1/src/bldc_sensor/psc.c:86
  if ( motor_state_get() == STOPPED )
 82c:	0e 94 a1 02 	call	0x542	; 0x542 <motor_state_get>
 830:	81 11       	cpse	r24, r1
 832:	2a c0       	rjmp	.+84     	; 0x888 <psc_phaseSelect+0x64>
C:/Users/Timothy/Documents/git/coastrunner_cr1_firmware_32M1/src/bldc_sensor/psc.c:88
  {
    psc_disconnectAllMOSFETs();
 834:	0e 94 0a 04 	call	0x814	; 0x814 <psc_disconnectAllMOSFETs>
C:/Users/Timothy/Documents/git/coastrunner_cr1_firmware_32M1/src/bldc_sensor/psc.c:91

    //disable PWM on all FETs
    Psc_set_module_A(0,A_RA_VAL,0);
 838:	10 92 a1 00 	sts	0x00A1, r1	; 0x8000a1 <__TEXT_REGION_LENGTH__+0x7f80a1>
 83c:	10 92 a0 00 	sts	0x00A0, r1	; 0x8000a0 <__TEXT_REGION_LENGTH__+0x7f80a0>
 840:	10 92 a3 00 	sts	0x00A3, r1	; 0x8000a3 <__TEXT_REGION_LENGTH__+0x7f80a3>
 844:	81 e0       	ldi	r24, 0x01	; 1
 846:	80 93 a2 00 	sts	0x00A2, r24	; 0x8000a2 <__TEXT_REGION_LENGTH__+0x7f80a2>
 84a:	10 92 a5 00 	sts	0x00A5, r1	; 0x8000a5 <__TEXT_REGION_LENGTH__+0x7f80a5>
 84e:	10 92 a4 00 	sts	0x00A4, r1	; 0x8000a4 <__TEXT_REGION_LENGTH__+0x7f80a4>
C:/Users/Timothy/Documents/git/coastrunner_cr1_firmware_32M1/src/bldc_sensor/psc.c:92
    Psc_set_module_B(0,B_RA_VAL,0);
 852:	10 92 a7 00 	sts	0x00A7, r1	; 0x8000a7 <__TEXT_REGION_LENGTH__+0x7f80a7>
 856:	10 92 a6 00 	sts	0x00A6, r1	; 0x8000a6 <__TEXT_REGION_LENGTH__+0x7f80a6>
 85a:	10 92 a9 00 	sts	0x00A9, r1	; 0x8000a9 <__TEXT_REGION_LENGTH__+0x7f80a9>
 85e:	80 93 a8 00 	sts	0x00A8, r24	; 0x8000a8 <__TEXT_REGION_LENGTH__+0x7f80a8>
 862:	10 92 ab 00 	sts	0x00AB, r1	; 0x8000ab <__TEXT_REGION_LENGTH__+0x7f80ab>
 866:	10 92 aa 00 	sts	0x00AA, r1	; 0x8000aa <__TEXT_REGION_LENGTH__+0x7f80aa>
C:/Users/Timothy/Documents/git/coastrunner_cr1_firmware_32M1/src/bldc_sensor/psc.c:93
    Psc_set_module_C(0,C_RA_VAL,0);
 86a:	10 92 ad 00 	sts	0x00AD, r1	; 0x8000ad <__TEXT_REGION_LENGTH__+0x7f80ad>
 86e:	10 92 ac 00 	sts	0x00AC, r1	; 0x8000ac <__TEXT_REGION_LENGTH__+0x7f80ac>
 872:	10 92 af 00 	sts	0x00AF, r1	; 0x8000af <__TEXT_REGION_LENGTH__+0x7f80af>
 876:	80 93 ae 00 	sts	0x00AE, r24	; 0x8000ae <__TEXT_REGION_LENGTH__+0x7f80ae>
 87a:	10 92 b1 00 	sts	0x00B1, r1	; 0x8000b1 <__TEXT_REGION_LENGTH__+0x7f80b1>
 87e:	10 92 b0 00 	sts	0x00B0, r1	; 0x8000b0 <__TEXT_REGION_LENGTH__+0x7f80b0>
C:/Users/Timothy/Documents/git/coastrunner_cr1_firmware_32M1/src/bldc_sensor/psc.c:156
  		default: psc_disconnectAllMOSFETs(); break;
  	}

    Psc_unlock();
  }
}
 882:	df 91       	pop	r29
 884:	cf 91       	pop	r28
 886:	08 95       	ret
psc_connectAllMOSFETs():
C:/Users/Timothy/Documents/git/coastrunner_cr1_firmware_32M1/src/bldc_sensor/psc.c:179

//used if PSCs are controlling commutation
void psc_connectAllMOSFETs(void)
{
  //POC: PSC output configuration
  POC = ( (1<<POEN0A)|(1<<POEN0B) |  //0:disconnect PSC outputs 0A & 0B from I/O pins //1:connect PSC output
 888:	8f e3       	ldi	r24, 0x3F	; 63
 88a:	80 93 b6 00 	sts	0x00B6, r24	; 0x8000b6 <__TEXT_REGION_LENGTH__+0x7f80b6>
psc_phaseSelect():
C:/Users/Timothy/Documents/git/coastrunner_cr1_firmware_32M1/src/bldc_sensor/psc.c:108
  else //(motor_state_get() == RUNNING)
  {
    psc_connectAllMOSFETs();

  	//flip hall bits (6->1, 5->2. 4->3, 3->4, 2->5, 1->6)
    if(motor_direction_get() == MOTOR_CCW) { phaseTarget = ((~phaseTarget) & 0b00000111); }
 88e:	0e 94 cb 02 	call	0x596	; 0x596 <motor_direction_get>
 892:	81 30       	cpi	r24, 0x01	; 1
 894:	11 f4       	brne	.+4      	; 0x89a <psc_phaseSelect+0x76>
 896:	c0 95       	com	r28
 898:	c7 70       	andi	r28, 0x07	; 7
C:/Users/Timothy/Documents/git/coastrunner_cr1_firmware_32M1/src/bldc_sensor/psc.c:110

  	Psc_lock();
 89a:	84 e3       	ldi	r24, 0x34	; 52
 89c:	80 93 b5 00 	sts	0x00B5, r24	; 0x8000b5 <__TEXT_REGION_LENGTH__+0x7f80b5>
C:/Users/Timothy/Documents/git/coastrunner_cr1_firmware_32M1/src/bldc_sensor/psc.c:113

  	//Determine which two PSC outputs will generate PWM waveforms 
  	switch(phaseTarget)
 8a0:	c3 30       	cpi	r28, 0x03	; 3
 8a2:	09 f4       	brne	.+2      	; 0x8a6 <psc_phaseSelect+0x82>
 8a4:	78 c0       	rjmp	.+240    	; 0x996 <__stack+0x97>
 8a6:	40 f4       	brcc	.+16     	; 0x8b8 <psc_phaseSelect+0x94>
 8a8:	c1 30       	cpi	r28, 0x01	; 1
 8aa:	39 f1       	breq	.+78     	; 0x8fa <psc_phaseSelect+0xd6>
 8ac:	c2 30       	cpi	r28, 0x02	; 2
 8ae:	09 f4       	brne	.+2      	; 0x8b2 <psc_phaseSelect+0x8e>
 8b0:	4c c0       	rjmp	.+152    	; 0x94a <__stack+0x4b>
C:/Users/Timothy/Documents/git/coastrunner_cr1_firmware_32M1/src/bldc_sensor/psc.c:151
  		Psc_set_module_A(0,A_RA_VAL,duty); //PWM_Q2 (PSC0B)(PB7)
  		Psc_set_module_B(0,B_RA_VAL,0);
  		Psc_set_module_C(duty,C_RA_VAL,0); //PWM_Q5 (PSC2A)(PB0)
  		break;
        
  		default: psc_disconnectAllMOSFETs(); break;
 8b2:	0e 94 0a 04 	call	0x814	; 0x814 <psc_disconnectAllMOSFETs>
 8b6:	45 c0       	rjmp	.+138    	; 0x942 <__stack+0x43>
C:/Users/Timothy/Documents/git/coastrunner_cr1_firmware_32M1/src/bldc_sensor/psc.c:113
    if(motor_direction_get() == MOTOR_CCW) { phaseTarget = ((~phaseTarget) & 0b00000111); }

  	Psc_lock();

  	//Determine which two PSC outputs will generate PWM waveforms 
  	switch(phaseTarget)
 8b8:	c5 30       	cpi	r28, 0x05	; 5
 8ba:	09 f4       	brne	.+2      	; 0x8be <psc_phaseSelect+0x9a>
 8bc:	ac c0       	rjmp	.+344    	; 0xa16 <__stack+0x117>
 8be:	08 f4       	brcc	.+2      	; 0x8c2 <psc_phaseSelect+0x9e>
 8c0:	8c c0       	rjmp	.+280    	; 0x9da <__stack+0xdb>
 8c2:	c6 30       	cpi	r28, 0x06	; 6
 8c4:	b1 f7       	brne	.-20     	; 0x8b2 <psc_phaseSelect+0x8e>
C:/Users/Timothy/Documents/git/coastrunner_cr1_firmware_32M1/src/bldc_sensor/psc.c:146
  		Psc_set_module_B(0,B_RA_VAL,duty); //PWM_Q4 (PSC1B)(PB6)
  		Psc_set_module_C(0,C_RA_VAL,0);
  		break;

  		case 6: //Set_Q5Q2(); 2A 0B
  		Psc_set_module_A(0,A_RA_VAL,duty); //PWM_Q2 (PSC0B)(PB7)
 8c6:	10 92 a1 00 	sts	0x00A1, r1	; 0x8000a1 <__TEXT_REGION_LENGTH__+0x7f80a1>
 8ca:	10 92 a0 00 	sts	0x00A0, r1	; 0x8000a0 <__TEXT_REGION_LENGTH__+0x7f80a0>
 8ce:	10 92 a3 00 	sts	0x00A3, r1	; 0x8000a3 <__TEXT_REGION_LENGTH__+0x7f80a3>
 8d2:	81 e0       	ldi	r24, 0x01	; 1
 8d4:	80 93 a2 00 	sts	0x00A2, r24	; 0x8000a2 <__TEXT_REGION_LENGTH__+0x7f80a2>
 8d8:	10 92 a5 00 	sts	0x00A5, r1	; 0x8000a5 <__TEXT_REGION_LENGTH__+0x7f80a5>
 8dc:	d0 93 a4 00 	sts	0x00A4, r29	; 0x8000a4 <__TEXT_REGION_LENGTH__+0x7f80a4>
C:/Users/Timothy/Documents/git/coastrunner_cr1_firmware_32M1/src/bldc_sensor/psc.c:147
  		Psc_set_module_B(0,B_RA_VAL,0);
 8e0:	10 92 a7 00 	sts	0x00A7, r1	; 0x8000a7 <__TEXT_REGION_LENGTH__+0x7f80a7>
 8e4:	10 92 a6 00 	sts	0x00A6, r1	; 0x8000a6 <__TEXT_REGION_LENGTH__+0x7f80a6>
 8e8:	10 92 a9 00 	sts	0x00A9, r1	; 0x8000a9 <__TEXT_REGION_LENGTH__+0x7f80a9>
 8ec:	80 93 a8 00 	sts	0x00A8, r24	; 0x8000a8 <__TEXT_REGION_LENGTH__+0x7f80a8>
 8f0:	10 92 ab 00 	sts	0x00AB, r1	; 0x8000ab <__TEXT_REGION_LENGTH__+0x7f80ab>
 8f4:	10 92 aa 00 	sts	0x00AA, r1	; 0x8000aa <__TEXT_REGION_LENGTH__+0x7f80aa>
 8f8:	89 c0       	rjmp	.+274    	; 0xa0c <__stack+0x10d>
C:/Users/Timothy/Documents/git/coastrunner_cr1_firmware_32M1/src/bldc_sensor/psc.c:116

  	//Determine which two PSC outputs will generate PWM waveforms 
  	switch(phaseTarget)
  	{
  		case 1:  
  		Psc_set_module_A(duty,A_RA_VAL,0); //PWM_Q1 (PSC0A)(PD0)
 8fa:	10 92 a1 00 	sts	0x00A1, r1	; 0x8000a1 <__TEXT_REGION_LENGTH__+0x7f80a1>
 8fe:	d0 93 a0 00 	sts	0x00A0, r29	; 0x8000a0 <__TEXT_REGION_LENGTH__+0x7f80a0>
 902:	10 92 a3 00 	sts	0x00A3, r1	; 0x8000a3 <__TEXT_REGION_LENGTH__+0x7f80a3>
 906:	c0 93 a2 00 	sts	0x00A2, r28	; 0x8000a2 <__TEXT_REGION_LENGTH__+0x7f80a2>
 90a:	10 92 a5 00 	sts	0x00A5, r1	; 0x8000a5 <__TEXT_REGION_LENGTH__+0x7f80a5>
 90e:	10 92 a4 00 	sts	0x00A4, r1	; 0x8000a4 <__TEXT_REGION_LENGTH__+0x7f80a4>
C:/Users/Timothy/Documents/git/coastrunner_cr1_firmware_32M1/src/bldc_sensor/psc.c:117
  		Psc_set_module_B(0,B_RA_VAL,0);
 912:	10 92 a7 00 	sts	0x00A7, r1	; 0x8000a7 <__TEXT_REGION_LENGTH__+0x7f80a7>
 916:	10 92 a6 00 	sts	0x00A6, r1	; 0x8000a6 <__TEXT_REGION_LENGTH__+0x7f80a6>
 91a:	10 92 a9 00 	sts	0x00A9, r1	; 0x8000a9 <__TEXT_REGION_LENGTH__+0x7f80a9>
 91e:	c0 93 a8 00 	sts	0x00A8, r28	; 0x8000a8 <__TEXT_REGION_LENGTH__+0x7f80a8>
 922:	10 92 ab 00 	sts	0x00AB, r1	; 0x8000ab <__TEXT_REGION_LENGTH__+0x7f80ab>
 926:	10 92 aa 00 	sts	0x00AA, r1	; 0x8000aa <__TEXT_REGION_LENGTH__+0x7f80aa>
C:/Users/Timothy/Documents/git/coastrunner_cr1_firmware_32M1/src/bldc_sensor/psc.c:118
  		Psc_set_module_C(0,C_RA_VAL,duty); //PWM_Q6 (PSC2B)(PB1)
 92a:	10 92 ad 00 	sts	0x00AD, r1	; 0x8000ad <__TEXT_REGION_LENGTH__+0x7f80ad>
 92e:	10 92 ac 00 	sts	0x00AC, r1	; 0x8000ac <__TEXT_REGION_LENGTH__+0x7f80ac>
 932:	10 92 af 00 	sts	0x00AF, r1	; 0x8000af <__TEXT_REGION_LENGTH__+0x7f80af>
 936:	c0 93 ae 00 	sts	0x00AE, r28	; 0x8000ae <__TEXT_REGION_LENGTH__+0x7f80ae>
C:/Users/Timothy/Documents/git/coastrunner_cr1_firmware_32M1/src/bldc_sensor/psc.c:130
  		break;

  		case 3: //Set_Q3Q6(); 1A 2B
  		Psc_set_module_A(0,A_RA_VAL,0);
  		Psc_set_module_B(duty,B_RA_VAL,0); //PWM_Q3 (PSC1A)(PC0)
  		Psc_set_module_C(0,C_RA_VAL,duty); //PWM_Q6 (PSC2B)(PB1)
 93a:	10 92 b1 00 	sts	0x00B1, r1	; 0x8000b1 <__TEXT_REGION_LENGTH__+0x7f80b1>
 93e:	d0 93 b0 00 	sts	0x00B0, r29	; 0x8000b0 <__TEXT_REGION_LENGTH__+0x7f80b0>
C:/Users/Timothy/Documents/git/coastrunner_cr1_firmware_32M1/src/bldc_sensor/psc.c:154
  		break;
        
  		default: psc_disconnectAllMOSFETs(); break;
  	}

    Psc_unlock();
 942:	84 e1       	ldi	r24, 0x14	; 20
 944:	80 93 b5 00 	sts	0x00B5, r24	; 0x8000b5 <__TEXT_REGION_LENGTH__+0x7f80b5>
C:/Users/Timothy/Documents/git/coastrunner_cr1_firmware_32M1/src/bldc_sensor/psc.c:156
  }
}
 948:	9c cf       	rjmp	.-200    	; 0x882 <psc_phaseSelect+0x5e>
C:/Users/Timothy/Documents/git/coastrunner_cr1_firmware_32M1/src/bldc_sensor/psc.c:122
  		Psc_set_module_B(0,B_RA_VAL,0);
  		Psc_set_module_C(0,C_RA_VAL,duty); //PWM_Q6 (PSC2B)(PB1)
  		break;

  		case 2: //Set_Q3Q2(); 1A 0B
  		Psc_set_module_A(0,A_RA_VAL,duty); //PWM_Q2 (PSC0B)(PB7)
 94a:	10 92 a1 00 	sts	0x00A1, r1	; 0x8000a1 <__TEXT_REGION_LENGTH__+0x7f80a1>
 94e:	10 92 a0 00 	sts	0x00A0, r1	; 0x8000a0 <__TEXT_REGION_LENGTH__+0x7f80a0>
 952:	10 92 a3 00 	sts	0x00A3, r1	; 0x8000a3 <__TEXT_REGION_LENGTH__+0x7f80a3>
 956:	81 e0       	ldi	r24, 0x01	; 1
 958:	80 93 a2 00 	sts	0x00A2, r24	; 0x8000a2 <__TEXT_REGION_LENGTH__+0x7f80a2>
 95c:	10 92 a5 00 	sts	0x00A5, r1	; 0x8000a5 <__TEXT_REGION_LENGTH__+0x7f80a5>
 960:	d0 93 a4 00 	sts	0x00A4, r29	; 0x8000a4 <__TEXT_REGION_LENGTH__+0x7f80a4>
C:/Users/Timothy/Documents/git/coastrunner_cr1_firmware_32M1/src/bldc_sensor/psc.c:123
  		Psc_set_module_B(duty,B_RA_VAL,0); //PWM_Q3 (PSC1A)(PC0)
 964:	10 92 a7 00 	sts	0x00A7, r1	; 0x8000a7 <__TEXT_REGION_LENGTH__+0x7f80a7>
 968:	d0 93 a6 00 	sts	0x00A6, r29	; 0x8000a6 <__TEXT_REGION_LENGTH__+0x7f80a6>
 96c:	10 92 a9 00 	sts	0x00A9, r1	; 0x8000a9 <__TEXT_REGION_LENGTH__+0x7f80a9>
 970:	80 93 a8 00 	sts	0x00A8, r24	; 0x8000a8 <__TEXT_REGION_LENGTH__+0x7f80a8>
 974:	10 92 ab 00 	sts	0x00AB, r1	; 0x8000ab <__TEXT_REGION_LENGTH__+0x7f80ab>
 978:	10 92 aa 00 	sts	0x00AA, r1	; 0x8000aa <__TEXT_REGION_LENGTH__+0x7f80aa>
C:/Users/Timothy/Documents/git/coastrunner_cr1_firmware_32M1/src/bldc_sensor/psc.c:142
  		break;

  		case 5: //Set_Q1Q4(); 0A 1B
  		Psc_set_module_A(duty,A_RA_VAL,0); //PWM_Q1 (PSC0A)(PD0)
  		Psc_set_module_B(0,B_RA_VAL,duty); //PWM_Q4 (PSC1B)(PB6)
  		Psc_set_module_C(0,C_RA_VAL,0);
 97c:	10 92 ad 00 	sts	0x00AD, r1	; 0x8000ad <__TEXT_REGION_LENGTH__+0x7f80ad>
 980:	10 92 ac 00 	sts	0x00AC, r1	; 0x8000ac <__TEXT_REGION_LENGTH__+0x7f80ac>
C:/Users/Timothy/Documents/git/coastrunner_cr1_firmware_32M1/src/bldc_sensor/psc.c:148
  		break;

  		case 6: //Set_Q5Q2(); 2A 0B
  		Psc_set_module_A(0,A_RA_VAL,duty); //PWM_Q2 (PSC0B)(PB7)
  		Psc_set_module_B(0,B_RA_VAL,0);
  		Psc_set_module_C(duty,C_RA_VAL,0); //PWM_Q5 (PSC2A)(PB0)
 984:	10 92 af 00 	sts	0x00AF, r1	; 0x8000af <__TEXT_REGION_LENGTH__+0x7f80af>
 988:	80 93 ae 00 	sts	0x00AE, r24	; 0x8000ae <__TEXT_REGION_LENGTH__+0x7f80ae>
 98c:	10 92 b1 00 	sts	0x00B1, r1	; 0x8000b1 <__TEXT_REGION_LENGTH__+0x7f80b1>
 990:	10 92 b0 00 	sts	0x00B0, r1	; 0x8000b0 <__TEXT_REGION_LENGTH__+0x7f80b0>
 994:	d6 cf       	rjmp	.-84     	; 0x942 <__stack+0x43>
C:/Users/Timothy/Documents/git/coastrunner_cr1_firmware_32M1/src/bldc_sensor/psc.c:128
  		Psc_set_module_B(duty,B_RA_VAL,0); //PWM_Q3 (PSC1A)(PC0)
  		Psc_set_module_C(0,C_RA_VAL,0);
  		break;

  		case 3: //Set_Q3Q6(); 1A 2B
  		Psc_set_module_A(0,A_RA_VAL,0);
 996:	10 92 a1 00 	sts	0x00A1, r1	; 0x8000a1 <__TEXT_REGION_LENGTH__+0x7f80a1>
 99a:	10 92 a0 00 	sts	0x00A0, r1	; 0x8000a0 <__TEXT_REGION_LENGTH__+0x7f80a0>
 99e:	10 92 a3 00 	sts	0x00A3, r1	; 0x8000a3 <__TEXT_REGION_LENGTH__+0x7f80a3>
 9a2:	81 e0       	ldi	r24, 0x01	; 1
 9a4:	80 93 a2 00 	sts	0x00A2, r24	; 0x8000a2 <__TEXT_REGION_LENGTH__+0x7f80a2>
 9a8:	10 92 a5 00 	sts	0x00A5, r1	; 0x8000a5 <__TEXT_REGION_LENGTH__+0x7f80a5>
 9ac:	10 92 a4 00 	sts	0x00A4, r1	; 0x8000a4 <__TEXT_REGION_LENGTH__+0x7f80a4>
C:/Users/Timothy/Documents/git/coastrunner_cr1_firmware_32M1/src/bldc_sensor/psc.c:129
  		Psc_set_module_B(duty,B_RA_VAL,0); //PWM_Q3 (PSC1A)(PC0)
 9b0:	10 92 a7 00 	sts	0x00A7, r1	; 0x8000a7 <__TEXT_REGION_LENGTH__+0x7f80a7>
 9b4:	d0 93 a6 00 	sts	0x00A6, r29	; 0x8000a6 <__TEXT_REGION_LENGTH__+0x7f80a6>
 9b8:	10 92 a9 00 	sts	0x00A9, r1	; 0x8000a9 <__TEXT_REGION_LENGTH__+0x7f80a9>
 9bc:	80 93 a8 00 	sts	0x00A8, r24	; 0x8000a8 <__TEXT_REGION_LENGTH__+0x7f80a8>
 9c0:	10 92 ab 00 	sts	0x00AB, r1	; 0x8000ab <__TEXT_REGION_LENGTH__+0x7f80ab>
 9c4:	10 92 aa 00 	sts	0x00AA, r1	; 0x8000aa <__TEXT_REGION_LENGTH__+0x7f80aa>
C:/Users/Timothy/Documents/git/coastrunner_cr1_firmware_32M1/src/bldc_sensor/psc.c:130
  		Psc_set_module_C(0,C_RA_VAL,duty); //PWM_Q6 (PSC2B)(PB1)
 9c8:	10 92 ad 00 	sts	0x00AD, r1	; 0x8000ad <__TEXT_REGION_LENGTH__+0x7f80ad>
 9cc:	10 92 ac 00 	sts	0x00AC, r1	; 0x8000ac <__TEXT_REGION_LENGTH__+0x7f80ac>
 9d0:	10 92 af 00 	sts	0x00AF, r1	; 0x8000af <__TEXT_REGION_LENGTH__+0x7f80af>
 9d4:	80 93 ae 00 	sts	0x00AE, r24	; 0x8000ae <__TEXT_REGION_LENGTH__+0x7f80ae>
 9d8:	b0 cf       	rjmp	.-160    	; 0x93a <__stack+0x3b>
C:/Users/Timothy/Documents/git/coastrunner_cr1_firmware_32M1/src/bldc_sensor/psc.c:134
  		break;

  		case 4: //Set_Q5Q4(); 2A 1B
  		Psc_set_module_A(0,A_RA_VAL,0);
 9da:	10 92 a1 00 	sts	0x00A1, r1	; 0x8000a1 <__TEXT_REGION_LENGTH__+0x7f80a1>
 9de:	10 92 a0 00 	sts	0x00A0, r1	; 0x8000a0 <__TEXT_REGION_LENGTH__+0x7f80a0>
 9e2:	10 92 a3 00 	sts	0x00A3, r1	; 0x8000a3 <__TEXT_REGION_LENGTH__+0x7f80a3>
 9e6:	81 e0       	ldi	r24, 0x01	; 1
 9e8:	80 93 a2 00 	sts	0x00A2, r24	; 0x8000a2 <__TEXT_REGION_LENGTH__+0x7f80a2>
 9ec:	10 92 a5 00 	sts	0x00A5, r1	; 0x8000a5 <__TEXT_REGION_LENGTH__+0x7f80a5>
 9f0:	10 92 a4 00 	sts	0x00A4, r1	; 0x8000a4 <__TEXT_REGION_LENGTH__+0x7f80a4>
C:/Users/Timothy/Documents/git/coastrunner_cr1_firmware_32M1/src/bldc_sensor/psc.c:135
  		Psc_set_module_B(0,B_RA_VAL,duty); //PWM_Q4 (PSC1B)(PB6)
 9f4:	10 92 a7 00 	sts	0x00A7, r1	; 0x8000a7 <__TEXT_REGION_LENGTH__+0x7f80a7>
 9f8:	10 92 a6 00 	sts	0x00A6, r1	; 0x8000a6 <__TEXT_REGION_LENGTH__+0x7f80a6>
 9fc:	10 92 a9 00 	sts	0x00A9, r1	; 0x8000a9 <__TEXT_REGION_LENGTH__+0x7f80a9>
 a00:	80 93 a8 00 	sts	0x00A8, r24	; 0x8000a8 <__TEXT_REGION_LENGTH__+0x7f80a8>
 a04:	10 92 ab 00 	sts	0x00AB, r1	; 0x8000ab <__TEXT_REGION_LENGTH__+0x7f80ab>
 a08:	d0 93 aa 00 	sts	0x00AA, r29	; 0x8000aa <__TEXT_REGION_LENGTH__+0x7f80aa>
C:/Users/Timothy/Documents/git/coastrunner_cr1_firmware_32M1/src/bldc_sensor/psc.c:148
  		break;

  		case 6: //Set_Q5Q2(); 2A 0B
  		Psc_set_module_A(0,A_RA_VAL,duty); //PWM_Q2 (PSC0B)(PB7)
  		Psc_set_module_B(0,B_RA_VAL,0);
  		Psc_set_module_C(duty,C_RA_VAL,0); //PWM_Q5 (PSC2A)(PB0)
 a0c:	10 92 ad 00 	sts	0x00AD, r1	; 0x8000ad <__TEXT_REGION_LENGTH__+0x7f80ad>
 a10:	d0 93 ac 00 	sts	0x00AC, r29	; 0x8000ac <__TEXT_REGION_LENGTH__+0x7f80ac>
 a14:	b7 cf       	rjmp	.-146    	; 0x984 <__stack+0x85>
C:/Users/Timothy/Documents/git/coastrunner_cr1_firmware_32M1/src/bldc_sensor/psc.c:140
  		Psc_set_module_B(0,B_RA_VAL,duty); //PWM_Q4 (PSC1B)(PB6)
  		Psc_set_module_C(duty,C_RA_VAL,0); //PWM_Q5 (PSC2A)(PB0)
  		break;

  		case 5: //Set_Q1Q4(); 0A 1B
  		Psc_set_module_A(duty,A_RA_VAL,0); //PWM_Q1 (PSC0A)(PD0)
 a16:	10 92 a1 00 	sts	0x00A1, r1	; 0x8000a1 <__TEXT_REGION_LENGTH__+0x7f80a1>
 a1a:	d0 93 a0 00 	sts	0x00A0, r29	; 0x8000a0 <__TEXT_REGION_LENGTH__+0x7f80a0>
 a1e:	10 92 a3 00 	sts	0x00A3, r1	; 0x8000a3 <__TEXT_REGION_LENGTH__+0x7f80a3>
 a22:	81 e0       	ldi	r24, 0x01	; 1
 a24:	80 93 a2 00 	sts	0x00A2, r24	; 0x8000a2 <__TEXT_REGION_LENGTH__+0x7f80a2>
 a28:	10 92 a5 00 	sts	0x00A5, r1	; 0x8000a5 <__TEXT_REGION_LENGTH__+0x7f80a5>
 a2c:	10 92 a4 00 	sts	0x00A4, r1	; 0x8000a4 <__TEXT_REGION_LENGTH__+0x7f80a4>
C:/Users/Timothy/Documents/git/coastrunner_cr1_firmware_32M1/src/bldc_sensor/psc.c:141
  		Psc_set_module_B(0,B_RA_VAL,duty); //PWM_Q4 (PSC1B)(PB6)
 a30:	10 92 a7 00 	sts	0x00A7, r1	; 0x8000a7 <__TEXT_REGION_LENGTH__+0x7f80a7>
 a34:	10 92 a6 00 	sts	0x00A6, r1	; 0x8000a6 <__TEXT_REGION_LENGTH__+0x7f80a6>
 a38:	10 92 a9 00 	sts	0x00A9, r1	; 0x8000a9 <__TEXT_REGION_LENGTH__+0x7f80a9>
 a3c:	80 93 a8 00 	sts	0x00A8, r24	; 0x8000a8 <__TEXT_REGION_LENGTH__+0x7f80a8>
 a40:	10 92 ab 00 	sts	0x00AB, r1	; 0x8000ab <__TEXT_REGION_LENGTH__+0x7f80ab>
 a44:	d0 93 aa 00 	sts	0x00AA, r29	; 0x8000aa <__TEXT_REGION_LENGTH__+0x7f80aa>
 a48:	99 cf       	rjmp	.-206    	; 0x97c <__stack+0x7d>

00000a4a <psc_commutateOutputWaveforms>:
psc_commutateOutputWaveforms():
C:/Users/Timothy/Documents/git/coastrunner_cr1_firmware_32M1/src/bldc_sensor/psc.c:76

//Set the duty cycle values in the PSC according to the value calculate by the regulation loop
  // duty =   0: Duty Cycle   0%
  // duty = 255: Duty Cycle 100%
void psc_commutateOutputWaveforms(uint8_t duty)
{ 
 a4a:	cf 93       	push	r28
 a4c:	c8 2f       	mov	r28, r24
C:/Users/Timothy/Documents/git/coastrunner_cr1_firmware_32M1/src/bldc_sensor/psc.c:77
  uint8_t hallState = hall_getPosition();
 a4e:	0e 94 63 01 	call	0x2c6	; 0x2c6 <hall_getPosition>
C:/Users/Timothy/Documents/git/coastrunner_cr1_firmware_32M1/src/bldc_sensor/psc.c:79

  psc_phaseSelect(duty, hallState);
 a52:	68 2f       	mov	r22, r24
 a54:	8c 2f       	mov	r24, r28
C:/Users/Timothy/Documents/git/coastrunner_cr1_firmware_32M1/src/bldc_sensor/psc.c:80
}
 a56:	cf 91       	pop	r28
C:/Users/Timothy/Documents/git/coastrunner_cr1_firmware_32M1/src/bldc_sensor/psc.c:79
  // duty = 255: Duty Cycle 100%
void psc_commutateOutputWaveforms(uint8_t duty)
{ 
  uint8_t hallState = hall_getPosition();

  psc_phaseSelect(duty, hallState);
 a58:	0c 94 12 04 	jmp	0x824	; 0x824 <psc_phaseSelect>

00000a5c <timing_runControlLoop_get>:
timing_runControlLoop_get():
C:/Users/Timothy/Documents/git/coastrunner_cr1_firmware_32M1/src/bldc_sensor/timing.c:9

volatile uint16_t motorRPM_measured = 0;

////////////////////////////////////////////////////////////////////////////////////////

uint8_t timing_runControlLoop_get(void)          { return runControlLoop; }
 a5c:	80 91 43 01 	lds	r24, 0x0143	; 0x800143 <runControlLoop>
 a60:	08 95       	ret

00000a62 <timing_runControlLoop_set>:
timing_runControlLoop_set():
C:/Users/Timothy/Documents/git/coastrunner_cr1_firmware_32M1/src/bldc_sensor/timing.c:10
void    timing_runControlLoop_set(uint8_t state) { runControlLoop = state; }
 a62:	80 93 43 01 	sts	0x0143, r24	; 0x800143 <runControlLoop>
 a66:	08 95       	ret

00000a68 <timing_timer0_init>:
timing_timer0_init():
C:/Users/Timothy/Documents/git/coastrunner_cr1_firmware_32M1/src/bldc_sensor/timing.c:19
//Configure 8b Timer0 //count up to OCR0A
//interrupt occurs when timer value is OCR0A
//interrupt causes main control loop to execute
void timing_timer0_init(void)
{
  TCCR0A = (1<<WGM01)|(0<<WGM00); //set timer mode=CTC, don't connect timer to any output pins
 a68:	82 e0       	ldi	r24, 0x02	; 2
 a6a:	84 bd       	out	0x24, r24	; 36
C:/Users/Timothy/Documents/git/coastrunner_cr1_firmware_32M1/src/bldc_sensor/timing.c:20
  TCCR0B = (0<<CS02)|(1<<CS01)|(1<<CS00); //prescale Timer0 clock to CPU/64 prescaler //MUST also change TIMER0_TICK_PERIOD_us constant!
 a6c:	93 e0       	ldi	r25, 0x03	; 3
 a6e:	95 bd       	out	0x25, r25	; 37
C:/Users/Timothy/Documents/git/coastrunner_cr1_firmware_32M1/src/bldc_sensor/timing.c:21
  OCR0A  = TIMER0_COUNTS_TO; // f_interrupt = 1/(16MHz/64DIV)*(OCR0A+1) //OCR0A=7: 32us tick (512 clocks @ 16 MHz)
 a70:	97 e0       	ldi	r25, 0x07	; 7
 a72:	97 bd       	out	0x27, r25	; 39
C:/Users/Timothy/Documents/git/coastrunner_cr1_firmware_32M1/src/bldc_sensor/timing.c:22
  TIMSK0 = (1<<OCIE0A); // Output compare A Match interrupt Enable
 a74:	80 93 6e 00 	sts	0x006E, r24	; 0x80006e <__TEXT_REGION_LENGTH__+0x7f806e>
C:/Users/Timothy/Documents/git/coastrunner_cr1_firmware_32M1/src/bldc_sensor/timing.c:23
}
 a78:	08 95       	ret

00000a7a <__vector_15>:
__vector_15():
C:/Users/Timothy/Documents/git/coastrunner_cr1_firmware_32M1/src/bldc_sensor/timing.c:29

////////////////////////////////////////////////////////////////////////////////////////

//Timer0 interrupt occurs when timer hits 'OCR0A' value
//used to run main control loop 
ISR(TIMER0_COMPA_vect) { timing_runControlLoop_set(TRUE); }
 a7a:	1f 92       	push	r1
 a7c:	0f 92       	push	r0
 a7e:	0f b6       	in	r0, 0x3f	; 63
 a80:	0f 92       	push	r0
 a82:	11 24       	eor	r1, r1
 a84:	8f 93       	push	r24
timing_runControlLoop_set():
C:/Users/Timothy/Documents/git/coastrunner_cr1_firmware_32M1/src/bldc_sensor/timing.c:10
volatile uint16_t motorRPM_measured = 0;

////////////////////////////////////////////////////////////////////////////////////////

uint8_t timing_runControlLoop_get(void)          { return runControlLoop; }
void    timing_runControlLoop_set(uint8_t state) { runControlLoop = state; }
 a86:	81 e0       	ldi	r24, 0x01	; 1
 a88:	80 93 43 01 	sts	0x0143, r24	; 0x800143 <runControlLoop>
__vector_15():
C:/Users/Timothy/Documents/git/coastrunner_cr1_firmware_32M1/src/bldc_sensor/timing.c:29

////////////////////////////////////////////////////////////////////////////////////////

//Timer0 interrupt occurs when timer hits 'OCR0A' value
//used to run main control loop 
ISR(TIMER0_COMPA_vect) { timing_runControlLoop_set(TRUE); }
 a8c:	8f 91       	pop	r24
 a8e:	0f 90       	pop	r0
 a90:	0f be       	out	0x3f, r0	; 63
 a92:	0f 90       	pop	r0
 a94:	1f 90       	pop	r1
 a96:	18 95       	reti

00000a98 <timing_timer1_init>:
timing_timer1_init():
C:/Users/Timothy/Documents/git/coastrunner_cr1_firmware_32M1/src/bldc_sensor/timing.c:38

//configure 16b Timer1: count up to 2^16
//used to calculate RPM (by measuring time between HallB rising edges)
void timing_timer1_init(void)
{
  TCCR1A = 0; //set timer mode=normal, don't connect timer to any output pins
 a98:	10 92 80 00 	sts	0x0080, r1	; 0x800080 <__TEXT_REGION_LENGTH__+0x7f8080>
C:/Users/Timothy/Documents/git/coastrunner_cr1_firmware_32M1/src/bldc_sensor/timing.c:39
  TCCR1B = (0<<CS12)|(1<<CS11)|(1<<CS10); //prescale Timer1 clock to CPU/64 prescaler //MUST also change TIMER1_TICK_PERIOD_us constant!
 a9c:	83 e0       	ldi	r24, 0x03	; 3
 a9e:	80 93 81 00 	sts	0x0081, r24	; 0x800081 <__TEXT_REGION_LENGTH__+0x7f8081>
C:/Users/Timothy/Documents/git/coastrunner_cr1_firmware_32M1/src/bldc_sensor/timing.c:40
  TIMSK1 = (1<<TOIE1); //generate interrupt each time an overflow occurs
 aa2:	81 e0       	ldi	r24, 0x01	; 1
 aa4:	80 93 6f 00 	sts	0x006F, r24	; 0x80006f <__TEXT_REGION_LENGTH__+0x7f806f>
C:/Users/Timothy/Documents/git/coastrunner_cr1_firmware_32M1/src/bldc_sensor/timing.c:41
}
 aa8:	08 95       	ret

00000aaa <__vector_14>:
__vector_14():
C:/Users/Timothy/Documents/git/coastrunner_cr1_firmware_32M1/src/bldc_sensor/timing.c:50
//used to determine actual spindle RPM
//Timer1 increments every 4us ( 1/[16MHz/64] )
//Timer1 overflow interrupt occurs if no HallB rising edge occurs after ~262 milliseconds (2^16 * 4us) //HallB interrupt resets TCNT1 to zero)
//The value on Timer1 is the time between each Hall_B rising edge
ISR(TIMER1_OVF_vect)
{
 aaa:	1f 92       	push	r1
 aac:	0f 92       	push	r0
 aae:	0f b6       	in	r0, 0x3f	; 63
 ab0:	0f 92       	push	r0
 ab2:	11 24       	eor	r1, r1
C:/Users/Timothy/Documents/git/coastrunner_cr1_firmware_32M1/src/bldc_sensor/timing.c:52
  //timer1 hit max value //spindle isn't spinning
  TCNT1 = 0; //set Timer1 value to 0 //don't reset... we only want interrupt to fire once
 ab4:	10 92 85 00 	sts	0x0085, r1	; 0x800085 <__TEXT_REGION_LENGTH__+0x7f8085>
 ab8:	10 92 84 00 	sts	0x0084, r1	; 0x800084 <__TEXT_REGION_LENGTH__+0x7f8084>
timing_measuredRPM_set():
C:/Users/Timothy/Documents/git/coastrunner_cr1_firmware_32M1/src/bldc_sensor/timing.c:116

uint16_t timing_measuredRPM_get(void) { return motorRPM_measured; }

////////////////////////////////////////////////////////////////////////////////////////

void timing_measuredRPM_set(uint16_t measured_speed) { motorRPM_measured = measured_speed; }
 abc:	10 92 42 01 	sts	0x0142, r1	; 0x800142 <motorRPM_measured+0x1>
 ac0:	10 92 41 01 	sts	0x0141, r1	; 0x800141 <motorRPM_measured>
__vector_14():
C:/Users/Timothy/Documents/git/coastrunner_cr1_firmware_32M1/src/bldc_sensor/timing.c:54
ISR(TIMER1_OVF_vect)
{
  //timer1 hit max value //spindle isn't spinning
  TCNT1 = 0; //set Timer1 value to 0 //don't reset... we only want interrupt to fire once
  timing_measuredRPM_set(0);
}
 ac4:	0f 90       	pop	r0
 ac6:	0f be       	out	0x3f, r0	; 63
 ac8:	0f 90       	pop	r0
 aca:	1f 90       	pop	r1
 acc:	18 95       	reti

00000ace <timing_calculateRPM>:
timing_calculateRPM():
C:/Users/Timothy/Documents/git/coastrunner_cr1_firmware_32M1/src/bldc_sensor/timing.c:59

////////////////////////////////////////////////////////////////////////////////////////

inline uint16_t timing_calculateRPM(void)
{
 ace:	cf 93       	push	r28
 ad0:	df 93       	push	r29
C:/Users/Timothy/Documents/git/coastrunner_cr1_firmware_32M1/src/bldc_sensor/timing.c:60
  uint16_t timerCount = TCNT1; //retrieve 16b timer value
 ad2:	e4 e8       	ldi	r30, 0x84	; 132
 ad4:	f0 e0       	ldi	r31, 0x00	; 0
 ad6:	c0 81       	ld	r28, Z
 ad8:	d1 81       	ldd	r29, Z+1	; 0x01
C:/Users/Timothy/Documents/git/coastrunner_cr1_firmware_32M1/src/bldc_sensor/timing.c:61
  TCNT1 = 0; //reset Timer 1 ASAP (to minimize jitter)
 ada:	11 82       	std	Z+1, r1	; 0x01
 adc:	10 82       	st	Z, r1
C:/Users/Timothy/Documents/git/coastrunner_cr1_firmware_32M1/src/bldc_sensor/timing.c:75
    //hallFrequency_Hz = 1 / (timeSinceLastInterrupt_us * 1E-6)
    //shaftRPM_BLDC = (hallFrequency_Hz / BLDC_NUM_POLE_PAIRS) * SECONDS_PER_MINUTE
    //spindleRPM = shaftRPM_BLDC * SHEAVE_RATIO
  #define TIMER1_SPINDLE_RPM_CONSTANT (uint32_t)((SHEAVE_RATIO * MICROSECONDS_PER_SECOND * SECONDS_PER_MINUTE) / (BLDC_NUM_POLE_PAIRS * TIMER1_TICK_PERIOD_us))
  
  uint16_t spindleRPM_measured = TIMER1_SPINDLE_RPM_CONSTANT / timerCount; //executes in 625 ns (10 clock cycles)
 ade:	9e 01       	movw	r18, r28
 ae0:	50 e0       	ldi	r21, 0x00	; 0
 ae2:	40 e0       	ldi	r20, 0x00	; 0
 ae4:	60 ee       	ldi	r22, 0xE0	; 224
 ae6:	70 e7       	ldi	r23, 0x70	; 112
 ae8:	82 e7       	ldi	r24, 0x72	; 114
 aea:	90 e0       	ldi	r25, 0x00	; 0
 aec:	0e 94 8a 05 	call	0xb14	; 0xb14 <__udivmodsi4>
timing_measuredRPM_set():
C:/Users/Timothy/Documents/git/coastrunner_cr1_firmware_32M1/src/bldc_sensor/timing.c:116

uint16_t timing_measuredRPM_get(void) { return motorRPM_measured; }

////////////////////////////////////////////////////////////////////////////////////////

void timing_measuredRPM_set(uint16_t measured_speed) { motorRPM_measured = measured_speed; }
 af0:	30 93 42 01 	sts	0x0142, r19	; 0x800142 <motorRPM_measured+0x1>
 af4:	20 93 41 01 	sts	0x0141, r18	; 0x800141 <motorRPM_measured>
timing_calculateRPM():
C:/Users/Timothy/Documents/git/coastrunner_cr1_firmware_32M1/src/bldc_sensor/timing.c:108
  
  #else
    timing_measuredRPM_set(spindleRPM_measured); 
  #endif
  return timerCount;
}
 af8:	ce 01       	movw	r24, r28
 afa:	df 91       	pop	r29
 afc:	cf 91       	pop	r28
 afe:	08 95       	ret

00000b00 <timing_measuredRPM_get>:
timing_measuredRPM_get():
C:/Users/Timothy/Documents/git/coastrunner_cr1_firmware_32M1/src/bldc_sensor/timing.c:112

////////////////////////////////////////////////////////////////////////////////////////

uint16_t timing_measuredRPM_get(void) { return motorRPM_measured; }
 b00:	80 91 41 01 	lds	r24, 0x0141	; 0x800141 <motorRPM_measured>
 b04:	90 91 42 01 	lds	r25, 0x0142	; 0x800142 <motorRPM_measured+0x1>
 b08:	08 95       	ret

00000b0a <timing_measuredRPM_set>:
timing_measuredRPM_set():
C:/Users/Timothy/Documents/git/coastrunner_cr1_firmware_32M1/src/bldc_sensor/timing.c:116

////////////////////////////////////////////////////////////////////////////////////////

void timing_measuredRPM_set(uint16_t measured_speed) { motorRPM_measured = measured_speed; }
 b0a:	90 93 42 01 	sts	0x0142, r25	; 0x800142 <motorRPM_measured+0x1>
 b0e:	80 93 41 01 	sts	0x0141, r24	; 0x800141 <motorRPM_measured>
 b12:	08 95       	ret

00000b14 <__udivmodsi4>:
__udivmodsi4():
 b14:	a1 e2       	ldi	r26, 0x21	; 33
 b16:	1a 2e       	mov	r1, r26
 b18:	aa 1b       	sub	r26, r26
 b1a:	bb 1b       	sub	r27, r27
 b1c:	fd 01       	movw	r30, r26
 b1e:	0d c0       	rjmp	.+26     	; 0xb3a <__udivmodsi4_ep>

00000b20 <__udivmodsi4_loop>:
 b20:	aa 1f       	adc	r26, r26
 b22:	bb 1f       	adc	r27, r27
 b24:	ee 1f       	adc	r30, r30
 b26:	ff 1f       	adc	r31, r31
 b28:	a2 17       	cp	r26, r18
 b2a:	b3 07       	cpc	r27, r19
 b2c:	e4 07       	cpc	r30, r20
 b2e:	f5 07       	cpc	r31, r21
 b30:	20 f0       	brcs	.+8      	; 0xb3a <__udivmodsi4_ep>
 b32:	a2 1b       	sub	r26, r18
 b34:	b3 0b       	sbc	r27, r19
 b36:	e4 0b       	sbc	r30, r20
 b38:	f5 0b       	sbc	r31, r21

00000b3a <__udivmodsi4_ep>:
 b3a:	66 1f       	adc	r22, r22
 b3c:	77 1f       	adc	r23, r23
 b3e:	88 1f       	adc	r24, r24
 b40:	99 1f       	adc	r25, r25
 b42:	1a 94       	dec	r1
 b44:	69 f7       	brne	.-38     	; 0xb20 <__udivmodsi4_loop>
 b46:	60 95       	com	r22
 b48:	70 95       	com	r23
 b4a:	80 95       	com	r24
 b4c:	90 95       	com	r25
 b4e:	9b 01       	movw	r18, r22
 b50:	ac 01       	movw	r20, r24
 b52:	bd 01       	movw	r22, r26
 b54:	cf 01       	movw	r24, r30
 b56:	08 95       	ret

00000b58 <__usmulhisi3>:
__usmulhisi3():
 b58:	0e 94 b3 05 	call	0xb66	; 0xb66 <__umulhisi3>

00000b5c <__usmulhisi3_tail>:
__usmulhisi3_tail():
 b5c:	b7 ff       	sbrs	r27, 7
 b5e:	08 95       	ret
 b60:	82 1b       	sub	r24, r18
 b62:	93 0b       	sbc	r25, r19
 b64:	08 95       	ret

00000b66 <__umulhisi3>:
__umulhisi3():
 b66:	a2 9f       	mul	r26, r18
 b68:	b0 01       	movw	r22, r0
 b6a:	b3 9f       	mul	r27, r19
 b6c:	c0 01       	movw	r24, r0
 b6e:	a3 9f       	mul	r26, r19
 b70:	70 0d       	add	r23, r0
 b72:	81 1d       	adc	r24, r1
 b74:	11 24       	eor	r1, r1
 b76:	91 1d       	adc	r25, r1
 b78:	b2 9f       	mul	r27, r18
 b7a:	70 0d       	add	r23, r0
 b7c:	81 1d       	adc	r24, r1
 b7e:	11 24       	eor	r1, r1
 b80:	91 1d       	adc	r25, r1
 b82:	08 95       	ret

00000b84 <_exit>:
exit():
 b84:	f8 94       	cli

00000b86 <__stop_program>:
__stop_program():
 b86:	ff cf       	rjmp	.-2      	; 0xb86 <__stop_program>
